__ZN3ATF10fastMallocEm
__ZN3ATF20TCMalloc_ThreadCache10InitModuleEv
__ZN3ATFL15InitSizeClassesEv
__Z20TCMalloc_SystemAllocmPmm
__ZN3ATFL13MetaDataAllocEm
__ZN3ATF17TCMalloc_PageHeap19initializeScavengerEv
__ZN3ATF20TCMalloc_ThreadCache22CreateCacheIfNecessaryEv
__ZN3ATF25TCMalloc_Central_FreeList11RemoveRangeEPPvS2_Pi
__ZN3ATF25TCMalloc_Central_FreeList18FetchFromSpansSafeEv
__ZN3ATF17TCMalloc_PageHeap10AllocLargeEm
__ZN3ATF17TCMalloc_PageHeap8GrowHeapEm
__ZN3ATF17TCMalloc_PageHeap6DeleteEPNS_4SpanE
__ZN3ATF8fastFreeEPv
__ZN3ATF19initializeThreadingEv
__ZN3ATF36lockAtomicallyInitializedStaticMutexEv
__ZN3ATF38unlockAtomicallyInitializedStaticMutexEv
__ZN3AJ19initializeThreadingEv
__ZN3AJL23initializeThreadingOnceEv
__ZN3ATF13ATFThreadDataC1Ev
__ZN3AJ17initializeUStringEv
__ZN7Aphid10StringImpl5emptyEv
__ZN3AJ12AJGlobalData10storeVPtrsEv
__ZN3AJ9StructureC1ENS_7AJValueERKNS_8TypeInfoEj
__ZN3AJ7AJArrayC1EN3ATF17NonNullPassRefPtrINS_9StructureEEE
__ZN3ATF16fastZeroedMallocEm
__ZN3AJ7AJArrayD1Ev
__ZN3AJ7AJArrayD2Ev
__ZN3AJ9StructureD1Ev
__ZN3AJ9StructureD2Ev
__ZN3AJ11AJArrayArray15createStructureENS_7AJValueE
__ZN3AJ11AJArrayArrayD1Ev
__ZN3AJ8AJStringD1Ev
__ZN3AJ10AJFunctionC1EN3ATF17NonNullPassRefPtrINS_9StructureEEE
__ZN3AJ10AJFunctionC2EN3ATF17NonNullPassRefPtrINS_9StructureEEE
__ZN3AJ10AJFunctionD1Ev
__ZN3AJ10AJFunctionD2Ev
__ZN3AJ18VPtrHackExecutableD0Ev
__ZN3ATF5MutexC1Ev
__ZN3ATF15initializeDatesEv
__ZN3ATF11currentTimeEv
__ZN3ATF8msToYearEd
__ZN3ATF39initializeMainThreadToProcessMainThreadEv
__ZN3ATFL43initializeMainThreadToProcessMainThreadOnceEv
__ZN3ATF47initializeMainThreadToProcessMainThreadPlatformEv
__ZN3ATF20initializeMainThreadEv
__ZN3ATF15ThreadConditionC1Ev
__ZN7Aphid10StringImpl6createEPKtj
__ZN7Aphid10StringImpl19createUninitializedEjRPt
__ZN3ATF5Mutex4lockEv
__ZN3ATF5Mutex6unlockEv
__ZNK7Aphid6String17crossThreadStringEv
__ZN7Aphid10StringImpl17crossThreadStringEv
__ZN7Aphid10StringImpl12sharedBufferEv
__ZN7Aphid6StringC1EPKc
__ZN7Aphid10StringImpl6createEPKc
__ZN7Aphid10StringImpl6createEPKcj
__ZNK7Aphid6String14threadsafeCopyEv
__ZNK7Aphid10StringImpl14threadsafeCopyEv
__ZN7Aphid10StringImpl8endsWithEPS0_b
__ZN7Aphid10StringImpl4findEPS0_ib
__ZN7Aphid10StringImplD1Ev
__ZN7Aphid10StringImplD2Ev
__ZN7AphidplERKNS_6StringEPKc
__ZN7Aphid6String6appendERKS0_
__ZN7AphidplERKNS_6StringES2_
__ZN3ATF12createThreadEPFPvS0_ES0_PKc
__ZN3ATF20createThreadInternalEPFPvS0_ES0_PKc
__ZN3ATFL35establishIdentifierForPthreadHandleERKP17_opaque_pthread_t
__ZN3ATF9HashTableIjSt4pairIjP17_opaque_pthread_tENS_18PairFirstExtractorIS4_EENS_7IntHashIjEENS_14PairHashTraitsINS_10HashTrai
__ZN3ATFL16threadEntryPointEPv
__ZN3ATF31initializeCurrentThreadInternalEPKc
__ZN3ATF20ThreadIdentifierData10initializeEj
__ZN3ATF20ThreadIdentifierData23initializeKeyOnceHelperEv
__ZN3ATF5MutexD1Ev
__ZN3ATF12isMainThreadEv
__ZN3ATF7CString16newUninitializedEmRPc
__ZNK3ATF7CString4dataEv
__ZN3ATF14FastMallocZone4sizeEP14_malloc_zone_tPKv
__ZN7Aphid6String29charactersWithNullTerminationEv
__ZN7Aphid10StringImpl34createWithTerminatingNullCharacterERKS0_
__ZN3ATF13currentThreadEv
__ZN3ATF20ThreadIdentifierData10identifierEv
__ZNK7Aphid6String15stripWhiteSpaceEv
__ZN7Aphid10StringImpl15stripWhiteSpaceEv
__ZN7Aphid5equalEPKNS_10StringImplES2_
__ZN7AphidplEPKcRKNS_6StringE
__ZN7Aphid6StringC1EPKt
__ZN7Aphid6StringC2EPKt
__ZNK7Aphid6String7isEmptyEv
__ZN3ATF16callOnMainThreadEPFvPvES0_
__ZN3ATF5DequeINS_19FunctionWithContextEE14expandCapacityEv
__ZN3ATF37scheduleDispatchFunctionsOnMainThreadEv
__ZN3ATF15ThreadCondition4waitERNS_5MutexE
__ZN3ATF17TCMalloc_PageHeap3NewEm
__ZN7Aphid12AtomicString4initEv
__ZN3ATF7HashSetIPN7Aphid10StringImplENS1_10StringHashENS_10HashTraitsIS3_EEE3addIPKcNS1_17CStringTranslatorEEESt4pairINS_24H
__ZN3ATF9HashTableIPN7Aphid10StringImplES3_NS_17IdentityExtractorIS3_EENS1_10StringHashENS_10HashTraitsIS3_EES8_E6rehashEi
__ZN7Aphid12AtomicString3addEPKc
__ZN7Aphid12AtomicString3addEPNS_10StringImplE
__ZN7Aphid6StringC1EPKcj
__ZN7Aphid5equalEPKNS_10StringImplEPKc
__ZNK7Aphid6String6lengthEv
__ZNK7Aphid6StringixEj
__ZNK7Aphid6String9substringEjj
__ZN7Aphid10StringImpl9substringEjj
__ZNK7Aphid6String5lowerEv
__ZN7Aphid10StringImpl5lowerEv
__ZN7Aphid10StringImpl4findEti
__ZNK7Aphid6String10charactersEv
__ZN7Aphid17equalIgnoringCaseEPNS_10StringImplES1_
__ZN7Aphid17equalIgnoringCaseEPNS_10StringImplEPKc
__ZN7Aphid12AtomicString3addEPKtj
__ZN3ATF7HashSetIPN7Aphid10StringImplENS1_10StringHashENS_10HashTraitsIS3_EEE3addINS1_11UCharBufferENS1_21UCharBufferTranslat
__ZN7Aphid18charactersToDoubleEPKtmPb
__ZN3ATF6strtodEPKcPPc
__ZN3ATF15ThreadCondition9broadcastEv
__ZN3ATF15ThreadCondition6signalEv
__ZN7Aphid12AtomicString6removeEPNS_10StringImplE
__ZN3AJ12AJGlobalData12createLeakedENS_15ThreadStackTypeE
__ZN3AJ9Structure18startIgnoringLeaksEv
__ZN3AJ12AJGlobalDataC2ENS0_14GlobalDataTypeENS_15ThreadStackTypeE
__ZN3AJ17CommonIdentifiersC1EPNS_12AJGlobalDataE
__ZN3AJ17CommonIdentifiersC2EPNS_12AJGlobalDataE
__ZN3AJ10Identifier3addEPNS_12AJGlobalDataEPKc
__ZN3ATF7HashSetIPN7Aphid10StringImplENS1_10StringHashENS_10HashTraitsIS3_EEE3addIPKcN3AJ27IdentifierCStringTranslatorEEESt4
__ZN3ATF9HashTableIPN7Aphid10StringImplES3_NS_17IdentityExtractorIS3_EENS1_10StringHashENS_10HashTraitsIS3_EES8_E6expandEv
__ZN3ATF9HashTableIPKcSt4pairIS2_NS_6RefPtrIN7Aphid10StringImplEEEENS_18PairFirstExtractorIS8_EENS_7PtrHashIS2_EENS_14PairHas
__ZN3AJ10IdentifierC1EPNS_12AJGlobalDataEPKc
__ZN3AJ12SmallStringsC1Ev
__ZN3AJ19ExecutableAllocator17intializePageSizeEv
__ZN3AJ14ExecutablePool11systemAllocEm
__ZN3AJ5LexerC1EPNS_12AJGlobalDataE
__ZN3AJ11ParserArenaC1Ev
__ZN3AJ11ParserArenaC2Ev
__ZN3AJ11InterpreterC1Ev
__ZN3AJ11InterpreterC2Ev
__ZN3AJ9JITThunksC1EPNS_12AJGlobalDataE
__ZN3AJ3JITC1EPNS_12AJGlobalDataEPNS_9CodeBlockE
__ZN3AJ3JITC2EPNS_12AJGlobalDataEPNS_9CodeBlockE
__ZN3AJ3JIT35privateCompileCTIMachineTrampolinesEPN3ATF6RefPtrINS_14ExecutablePoolEEEPNS_12AJGlobalDataEPNS_19TrampolineStruct
__ZN3AJ20MacroAssemblerX86_6413branchTestPtrENS_23MacroAssemblerX86Common9ConditionENS_12X86Registers10RegisterIDES4_
__ZN3AJ12X86Assembler23X86InstructionFormatter11oneByteOp64ENS0_15OneByteOpcodeIDEiNS_12X86Registers10RegisterIDE
__ZN3AJ12X86Assembler3jCCENS0_9ConditionE
__ZN3AJ12X86Assembler23X86InstructionFormatter11oneByteOp64ENS0_15OneByteOpcodeIDEiNS_12X86Registers10RegisterIDEi
__ZN3AJ12X86Assembler23X86InstructionFormatter9oneByteOpENS0_15OneByteOpcodeIDEiNS_12X86Registers10RegisterIDEi
__ZN3AJ12X86Assembler23X86InstructionFormatter11memoryModRMEiNS_12X86Registers10RegisterIDEi
__ZN3AJ12X86Assembler23X86InstructionFormatter9oneByteOpENS0_15OneByteOpcodeIDEiNS_12X86Registers10RegisterIDE
__ZN3AJ15AssemblerBuffer11ensureSpaceEi
__ZN3AJ20MacroAssemblerX86_644callEv
__ZN3AJ20MacroAssemblerX86_647loadPtrENS_22AbstractMacroAssemblerINS_12X86AssemblerEE15ImplicitAddressENS_12X86Registers10Regi
__ZN3AJ12X86Assembler23X86InstructionFormatter9oneByteOpENS0_15OneByteOpcodeIDENS_12X86Registers10RegisterIDE
__ZN3AJ3JIT32compileOpCallInitializeCallFrameEv
__ZN3AJ15AssemblerBuffer4growEi
__ZN3ATF11fastReallocEPvm
__ZN3ATF11fastReallocILb1EEEPvS1_m
__ZN3ATF10RefCountedIN3AJ14ExecutablePoolEE5derefEv
__ZN3AJ14TimeoutCheckerC1Ev
__ZN3AJ4HeapC1EPNS_12AJGlobalDataE
__ZN3AJ4Heap13allocateBlockEv
__ZN3AJ9MarkStack18initializePagesizeEv
__ZN3AJ9MarkStack13allocateStackEm
__ZN3AJ27startProfilerServerIfNeededEv
+[ProfilerServer sharedProfileServer]
-[ProfilerServer init]
__ZN3AJ9Structure17stopIgnoringLeaksEv
__ZNK7Aphid6String6latin1Ev
__ZNK3ATF7CString6lengthEv
__ZN7Aphid10StringImpl22containsOnlyWhitespaceEv
__ZN7Aphid12AtomicString3addEPKt
__ZN7Aphid10StringImpl11reverseFindEPS0_ib
__ZN7Aphid10StringImpl5adoptERNS_12StringBufferE
__ZNK7Aphid6String5splitEtRN3ATF6VectorIS0_Lm0EEE
__ZNK7Aphid6String5splitERKS0_bRN3ATF6VectorIS0_Lm0EEE
-[ATFMainThreadCaller call]
__ZN3ATF31dispatchFunctionsFromMainThreadEv
__ZN3ATF15ThreadCondition9timedWaitERNS_5MutexEd
__ZN3ATF14FastMallocZone9forceLockEP14_malloc_zone_t
__ZN3ATF14FastMallocZone11forceUnlockEP14_malloc_zone_t
__ZN3ATF20TCMalloc_ThreadCache18DestroyThreadCacheEPv
__ZN3ATF20TCMalloc_ThreadCache11DeleteCacheEPS0_
__ZN3ATF25TCMalloc_Central_FreeList11InsertRangeEPvS1_i
__ZN3ATF25TCMalloc_Central_FreeList18ReleaseListToSpansEPv
__ZN3ATF20ThreadIdentifierData8destructEPv
__ZN3ATF31clearPthreadHandleForIdentifierEj
__ZN3ATF12detachThreadEj
__ZN3ATFL26pthreadHandleForIdentifierEj
__ZN7Aphid6StringC1EPKtj
__Z15jsRegExpCompilePKti24JSRegExpIgnoreCaseOption23JSRegExpMultilineOptionPjPPKc
__ZL30calculateCompiledPatternLengthPKti24JSRegExpIgnoreCaseOptionR11CompileDataR9ErrorCode
__ZL11checkEscapePPKtS0_P9ErrorCodeib
__ZL13compileBranchiPiPPhPPKtS3_P9ErrorCodeS_S_R11CompileData
__Z15jsRegExpExecutePK8JSRegExpPKtiiPii
__ZL5matchPKtPKhiR9MatchData
__ZN7Aphid6String6formatEPKcz
__ZNK7Aphid6String19characterStartingAtEj
__ZN7Aphid10StringImpl19characterStartingAtEj
__ZN3ATF25TCMalloc_Central_FreeList11ShrinkCacheEib
__ZNK7Aphid6String16removeCharactersEPFbtE
__ZN7Aphid10StringImpl16removeCharactersEPFbtE
__ZN7Aphid10StringImpl7replaceEtt
__ZNK7Aphid6String4utf8Ev
__ZN3ATF7Unicode18convertUTF16ToUTF8EPPKtS2_PPcS4_b
__ZN3ATF7CStringC1EPKcj
__ZN3ATF7CString4initEPKcj
__ZN7Aphid10StringImpl4findEPFbtEi
__ZN3AJ4Heap8allocateEm
__ZN3AJ6AJCellD1Ev
__ZN3AJ4Heap7protectENS_7AJValueE
__ZN3ATF9HashTableIPN3AJ6AJCellESt4pairIS3_jENS_18PairFirstExtractorIS5_EENS_7PtrHashIS3_EENS_14PairHashTraitsINS_10HashTraits
__ZN3AJ14AJGlobalObjectnwEmPNS_12AJGlobalDataE
__ZN3AJ14AJGlobalObject4initEPNS_8AJObjectE
__ZN3AJ14AJGlobalObject5resetENS_7AJValueE
__ZN3AJ17FunctionPrototypeC1EPNS_9AJExcStateEN3ATF17NonNullPassRefPtrINS_9StructureEEE
__ZN3AJ17FunctionPrototypeC2EPNS_9AJExcStateEN3ATF17NonNullPassRefPtrINS_9StructureEEE
__ZN3AJ16InternalFunctionC2EPNS_12AJGlobalDataEN3ATF17NonNullPassRefPtrINS_9StructureEEERKNS_10IdentifierE
__ZN3AJ7UStringC1EPKc
__ZN3AJ12SmallStrings17createEmptyStringEPNS_12AJGlobalDataE
__ZN3AJ8AJObject17putDirectInternalERKNS_10IdentifierENS_7AJValueEjbRNS_15PutPropertySlotEPNS_6AJCellE
__ZN3AJ9Structure40addPropertyTransitionToExistingStructureEPS0_RKNS_10IdentifierEjPNS_6AJCellERm
__ZN3AJ9Structure3getEPKN7Aphid10StringImplERjRPNS_6AJCellE
__ZN3AJ9Structure21addPropertyTransitionEPS0_RKNS_10IdentifierEjPNS_6AJCellERm
__ZN3AJ9Structure3putERKNS_10IdentifierEjPNS_6AJCellE
__ZN3AJ9Structure28addPropertyWithoutTransitionERKNS_10IdentifierEjPNS_6AJCellE
__ZN3AJ17FunctionPrototype21addFunctionPropertiesEPNS_9AJExcStateEPNS_9StructureEPPNS_10AJFunctionES7_
__ZN3AJ10AJFunctionC1EPNS_9AJExcStateEN3ATF17NonNullPassRefPtrINS_9StructureEEEiRKNS_10IdentifierEPFNS_7AJValueES2_PNS_8JSObjec
__ZN3AJ10AJFunctionC2EPNS_9AJExcStateEN3ATF17NonNullPassRefPtrINS_9StructureEEEiRKNS_10IdentifierEPFNS_7AJValueES2_PNS_8JSObjec
__ZN3AJ8AJObject34putDirectFunctionWithoutTransitionEPNS_9AJExcStateEPNS_16InternalFunctionEj
__ZN3AJ16InternalFunction4nameEPNS_9AJExcStateE
__ZN3AJ15ObjectPrototypeC1EPNS_9AJExcStateEN3ATF17NonNullPassRefPtrINS_9StructureEEEPS5_
__ZN3AJ15ObjectPrototypeC2EPNS_9AJExcStateEN3ATF17NonNullPassRefPtrINS_9StructureEEEPS5_
__ZN3AJ9Structure26rehashPropertyMapHashTableEj
__ZN3AJ8AJObject17createInheritorIDEv
__ZN3AJ14ArrayPrototypeC1EN3ATF17NonNullPassRefPtrINS_9StructureEEE
__ZN3AJ7AJArrayC2EN3ATF17NonNullPassRefPtrINS_9StructureEEE
__ZN3AJ15StringPrototypeC1EPNS_9AJExcStateEN3ATF17NonNullPassRefPtrINS_9StructureEEE
__ZN3AJ15StringPrototypeC2EPNS_9AJExcStateEN3ATF17NonNullPassRefPtrINS_9StructureEEE
__ZN3AJ12StringObjectC2EPNS_9AJExcStateEN3ATF17NonNullPassRefPtrINS_9StructureEEE
__ZN3AJ16BooleanPrototypeC1EPNS_9AJExcStateEN3ATF17NonNullPassRefPtrINS_9StructureEEEPS5_
__ZN3AJ16BooleanPrototypeC2EPNS_9AJExcStateEN3ATF17NonNullPassRefPtrINS_9StructureEEEPS5_
__ZN3AJ13BooleanObjectC2EN3ATF17NonNullPassRefPtrINS_9StructureEEE
__ZN3AJ15NumberPrototypeC1EPNS_9AJExcStateEN3ATF17NonNullPassRefPtrINS_9StructureEEEPS5_
__ZN3AJ15NumberPrototypeC2EPNS_9AJExcStateEN3ATF17NonNullPassRefPtrINS_9StructureEEEPS5_
__ZN3AJ12NumberObjectC2EN3ATF17NonNullPassRefPtrINS_9StructureEEE
__ZN3AJ13DatePrototypeC1EPNS_9AJExcStateEN3ATF17NonNullPassRefPtrINS_9StructureEEE
__ZN3AJ12DateInstanceC2EPNS_9AJExcStateEN3ATF17NonNullPassRefPtrINS_9StructureEEE
__ZN3AJ15RegExpPrototypeC1EPNS_9AJExcStateEN3ATF17NonNullPassRefPtrINS_9StructureEEEPS5_
__ZN3AJ15RegExpPrototypeC2EPNS_9AJExcStateEN3ATF17NonNullPassRefPtrINS_9StructureEEEPS5_
__ZN3AJ14ErrorPrototypeC1EPNS_9AJExcStateEN3ATF17NonNullPassRefPtrINS_9StructureEEEPS5_
__ZN3AJ14ErrorPrototypeC2EPNS_9AJExcStateEN3ATF17NonNullPassRefPtrINS_9StructureEEEPS5_
__ZN3AJ13ErrorInstanceC2EN3ATF17NonNullPassRefPtrINS_9StructureEEE
__ZN3AJ20NativeErrorPrototypeC1EPNS_9AJExcStateEN3ATF17NonNullPassRefPtrINS_9StructureEEERKNS_7UStringES9_
__ZN3AJ20NativeErrorPrototypeC2EPNS_9AJExcStateEN3ATF17NonNullPassRefPtrINS_9StructureEEERKNS_7UStringES9_
__ZN3AJ17ObjectConstructorC1EPNS_9AJExcStateEN3ATF17NonNullPassRefPtrINS_9StructureEEEPNS_15ObjectPrototypeEPS5_
__ZN3AJ17ObjectConstructorC2EPNS_9AJExcStateEN3ATF17NonNullPassRefPtrINS_9StructureEEEPNS_15ObjectPrototypeEPS5_
__ZN3AJ10Identifier3addEPNS_9AJExcStateEPKc
__ZN3AJ19FunctionConstructorC1EPNS_9AJExcStateEN3ATF17NonNullPassRefPtrINS_9StructureEEEPNS_17FunctionPrototypeE
__ZN3AJ19FunctionConstructorC2EPNS_9AJExcStateEN3ATF17NonNullPassRefPtrINS_9StructureEEEPNS_17FunctionPrototypeE
__ZNK3AJ16InternalFunction9classInfoEv
__ZN3AJ16ArrayConstructorC1EPNS_9AJExcStateEN3ATF17NonNullPassRefPtrINS_9StructureEEEPNS_14ArrayPrototypeEPS5_
__ZN3AJ16ArrayConstructorC2EPNS_9AJExcStateEN3ATF17NonNullPassRefPtrINS_9StructureEEEPNS_14ArrayPrototypeEPS5_
__ZNK3AJ14ArrayPrototype9classInfoEv
__ZN3AJ17StringConstructorC1EPNS_9AJExcStateEN3ATF17NonNullPassRefPtrINS_9StructureEEEPS5_PNS_15StringPrototypeE
__ZN3AJ17StringConstructorC2EPNS_9AJExcStateEN3ATF17NonNullPassRefPtrINS_9StructureEEEPS5_PNS_15StringPrototypeE
__ZNK3AJ15StringPrototype9classInfoEv
__ZN3AJ9JITThunks16specializedThunkEPNS_12AJGlobalDataEPFN3ATF10PassRefPtrINS_16NativeExecutableEEES2_PNS_14ExecutablePoolEE
__ZN3AJ26fromCharCodeThunkGeneratorEPNS_12AJGlobalDataEPNS_14ExecutablePoolE
__ZN3AJ22AbstractMacroAssemblerINS_12X86AssemblerEE8JumpList6appendENS2_4JumpE
__ZN3AJL12charToStringERNS_19SpecializedThunkJITEPNS_12AJGlobalDataENS_12X86Registers10RegisterIDES5_S5_
__ZN3AJ19SpecializedThunkJIT8finalizeEv
__ZN3AJ10AJFunctionC1EPNS_9AJExcStateEN3ATF17NonNullPassRefPtrINS_9StructureEEEiRKNS_10IdentifierEPNS_16NativeExecutableEPFNS_7
__ZN3AJ10AJFunctionC2EPNS_9AJExcStateEN3ATF17NonNullPassRefPtrINS_9StructureEEEiRKNS_10IdentifierEPNS_16NativeExecutableEPFNS_7
__ZN3AJ8AJObject23allocatePropertyStorageEmm
__ZN3AJ18BooleanConstructorC1EPNS_9AJExcStateEN3ATF17NonNullPassRefPtrINS_9StructureEEEPNS_16BooleanPrototypeE
__ZN3AJ18BooleanConstructorC2EPNS_9AJExcStateEN3ATF17NonNullPassRefPtrINS_9StructureEEEPNS_16BooleanPrototypeE
__ZNK3AJ13BooleanObject9classInfoEv
__ZN3AJ17NumberConstructorC1EPNS_9AJExcStateEN3ATF17NonNullPassRefPtrINS_9StructureEEEPNS_15NumberPrototypeE
__ZN3AJ17NumberConstructorC2EPNS_9AJExcStateEN3ATF17NonNullPassRefPtrINS_9StructureEEEPNS_15NumberPrototypeE
__ZN3AJ15DateConstructorC1EPNS_9AJExcStateEN3ATF17NonNullPassRefPtrINS_9StructureEEEPS5_PNS_13DatePrototypeE
__ZN3AJ15DateConstructorC2EPNS_9AJExcStateEN3ATF17NonNullPassRefPtrINS_9StructureEEEPS5_PNS_13DatePrototypeE
__ZNK3AJ13DatePrototype9classInfoEv
__ZN3AJ17RegExpConstructorC1EPNS_9AJExcStateEN3ATF17NonNullPassRefPtrINS_9StructureEEEPNS_15RegExpPrototypeE
__ZN3AJ17RegExpConstructorC2EPNS_9AJExcStateEN3ATF17NonNullPassRefPtrINS_9StructureEEEPNS_15RegExpPrototypeE
__ZN3AJ16ErrorConstructorC1EPNS_9AJExcStateEN3ATF17NonNullPassRefPtrINS_9StructureEEEPNS_14ErrorPrototypeE
__ZN3AJ16ErrorConstructorC2EPNS_9AJExcStateEN3ATF17NonNullPassRefPtrINS_9StructureEEEPNS_14ErrorPrototypeE
__ZNK3AJ13ErrorInstance9classInfoEv
__ZN3AJ22NativeErrorConstructorC1EPNS_9AJExcStateEN3ATF17NonNullPassRefPtrINS_9StructureEEEPNS_20NativeErrorPrototypeE
__ZN3AJ22NativeErrorConstructorC2EPNS_9AJExcStateEN3ATF17NonNullPassRefPtrINS_9StructureEEEPNS_20NativeErrorPrototypeE
__ZNK3AJ6AJCell9getStringEPNS_9AJExcStateE
__ZN3AJ10Identifier11addSlowCaseEPNS_9AJExcStateEPN7Aphid10StringImplE
__ZN3ATF7HashSetIPN7Aphid10StringImplENS1_10StringHashENS_10HashTraitsIS3_EEE3addERKS3_
__ZN3AJ10MathObjectC1EPNS_9AJExcStateEN3ATF17NonNullPassRefPtrINS_9StructureEEE
__ZN3AJ10MathObjectC2EPNS_9AJExcStateEN3ATF17NonNullPassRefPtrINS_9StructureEEE
__ZN3AJ12SmallStrings24singleCharacterStringRepEh
__ZN3AJ19SmallStringsStorageC2Ev
__ZN3AJ18GlobalEvalFunctionC1EPNS_9AJExcStateEN3ATF17NonNullPassRefPtrINS_9StructureEEEiRKNS_10IdentifierEPFNS_7AJValueES2_PNS_
__ZN3AJ17PrototypeFunctionC2EPNS_9AJExcStateEN3ATF17NonNullPassRefPtrINS_9StructureEEEiRKNS_10IdentifierEPFNS_7AJValueES2_PNS_8
__ZN3AJ9Structure25changePrototypeTransitionEPS0_NS_7AJValueE
__ZN3AJ9Structure17copyPropertyTableEv
__ZN3ATF10RefCountedIN3AJ9StructureEE5derefEv
__ZN3AJ14AJGlobalObject10globalExecEv
__ZN3AJ4Heap9unprotectENS_7AJValueE
__ZN3AJ14TimeoutChecker5resetEv
__ZN3AJ8evaluateEPNS_9AJExcStateERNS_10ScopeChainERKNS_10SourceCodeENS_7AJValueE
__ZN3AJ6AJLockC1EPNS_9AJExcStateE
__ZN3AJ6AJLock4lockENS_14AJLockBehaviorE
__ZN3AJ17ProgramExecutable7compileEPNS_9AJExcStateEPNS_14ScopeChainNodeE
__ZN3AJ6Parser5parseINS_11ProgramNodeEEEN3ATF10PassRefPtrIT_EEPNS_12AJGlobalDataEPNS_8DebuggerEPNS_9AJExcStateERKNS_10SourceCod
__ZN3AJ6Parser5parseEPNS_12AJGlobalDataEPiPNS_7UStringE
__ZN3AJ5Lexer7setCodeERKNS_10SourceCodeERNS_11ParserArenaE
__Z10jscyyparsePv
__ZN3AJ5Lexer3lexEPvS1_
__ZN3AJ10Identifier3addEPNS_12AJGlobalDataEPKti
__ZN3ATF7HashSetIPN7Aphid10StringImplENS1_10StringHashENS_10HashTraitsIS3_EEE3addIN3AJ11UCharBufferENS9_31IdentifierUCharBuf
__ZNK3AJ9HashTable11createTableEPNS_12AJGlobalDataE
__ZN3AJ11ParserArena20allocateFreeablePoolEv
__ZL20makeFunctionCallNodePN3AJ12AJGlobalDataENS_8NodeInfoIPNS_14ExpressionNodeEEENS2_IPNS_13ArgumentsNodeEEEiii
__ZNK3AJ15DotAccessorNode10isLocationEv
__ZNK3AJ14ExpressionNode13isResolveNodeEv
__ZNK3AJ14ExpressionNode21isBracketAccessorNodeEv
__ZL14makeAssignNodePN3AJ12AJGlobalDataEPNS_14ExpressionNodeENS_8OperatorES3_bbiii
__ZNK3AJ11ResolveNode10isLocationEv
__ZNK3AJ11ResolveNode13isResolveNodeEv
__ZN3AJ13StatementNode6setLocEii
__ZN3ATF6VectorIPN3AJ20ParserArenaDeletableELm0EE14expandCapacityEm
__ZN3AJ14SourceElements6appendEPNS_13StatementNodeE
__ZNK3AJ13StatementNode16isEmptyStatementEv
__ZN3ATF6VectorIPN3AJ13StatementNodeELm0EE14expandCapacityEm
__ZN3AJ6Parser16didFinishParsingEPNS_14SourceElementsEPNS_15ParserArenaDataIN3ATF6VectorISt4pairIPKNS_10IdentifierEjELm0EEEEEP
__ZN3AJ5Lexer5clearEv
__ZN3AJ11ProgramNode6createEPNS_12AJGlobalDataEPNS_14SourceElementsEPN3ATF6VectorISt4pairIPKNS_10IdentifierEjELm0EEEPNS6_IPNS_
__ZN3AJ9ScopeNodeC2EPNS_12AJGlobalDataERKNS_10SourceCodeEPNS_14SourceElementsEPN3ATF6VectorISt4pairIPKNS_10IdentifierEjELm0EEE
__ZN3AJ11ParserArena14derefWithArenaEN3ATF10PassRefPtrINS_21ParserArenaRefCountedEEE
__ZN3AJ11ParserArena10removeLastEv
__ZN3AJ11ParserArena5resetEv
__ZN3ATF6VectorIN3AJ10IdentifierELm64EE14shrinkCapacityEm
__ZN3AJ9CodeBlockC2EPNS_16ScriptExecutableENS_8CodeTypeEN3ATF10PassRefPtrINS_14SourceProviderEEEjPNS4_7HashMapINS4_6RefPtrIN7W
__ZN3ATF7HashSetIPN3AJ15GlobalCodeBlockENS_7PtrHashIS3_EENS_10HashTraitsIS3_EEE3addERKS3_
__ZN3ATF9HashTableIPN3AJ15GlobalCodeBlockES3_NS_17IdentityExtractorIS3_EENS_7PtrHashIS3_EENS_10HashTraitsIS3_EES9_E6rehashEi
__ZN3AJ17BytecodeGeneratorC1EPNS_11ProgramNodeEPKNS_8DebuggerERKNS_10ScopeChainEPN3ATF7HashMapINS9_6RefPtrIN7Aphid10StringIm
__ZN3AJ17BytecodeGeneratorC2EPNS_11ProgramNodeEPKNS_8DebuggerERKNS_10ScopeChainEPN3ATF7HashMapINS9_6RefPtrIN7Aphid10StringIm
__ZN3ATF6VectorIN3AJ11InstructionELm0EE15reserveCapacityEm
__ZN3AJ9Structure31toCacheableDictionaryTransitionEPS0_
__ZN3AJ9Structure22toDictionaryTransitionEPS0_NS0_14DictionaryKindE
__ZN3AJ9Structure26flattenDictionaryStructureEPNS_8AJObjectE
__ZN3AJ17BytecodeGenerator8generateEv
__ZN3AJ11ProgramNode12emitBytecodeERNS_17BytecodeGeneratorEPNS_10RegisterIDE
__ZN3AJ17BytecodeGenerator13emitDebugHookENS_11DebugHookIDEii
__ZN3AJ17BytecodeGenerator12newTemporaryEv
__ZN3AJ17BytecodeGenerator11newRegisterEv
__ZN3AJ17BytecodeGenerator8emitLoadEPNS_10RegisterIDENS_7AJValueE
__ZN3AJ17BytecodeGenerator16addConstantValueENS_7AJValueE
__ZN3ATF9HashTableIPvSt4pairIS1_jENS_18PairFirstExtractorIS3_EENS_7PtrHashIS1_EENS_14PairHashTraitsIN3AJ24EncodedAJValueHashTr
__ZN3ATF6VectorIN3AJ8RegisterELm0EE15reserveCapacityEm
__ZN3ATF6VectorIN3AJ8LineInfoELm0EE14expandCapacityEm
__ZN3AJ17ExprStatementNode12emitBytecodeERNS_17BytecodeGeneratorEPNS_10RegisterIDE
__ZN3AJ17AssignResolveNode12emitBytecodeERNS_17BytecodeGeneratorEPNS_10RegisterIDE
__ZN3AJ17BytecodeGenerator11registerForERKNS_10IdentifierE
__ZN3AJ17BytecodeGenerator18findScopedPropertyERKNS_10IdentifierERiRmbRbRPNS_8AJObjectE
__ZN3AJ17BytecodeGenerator15emitResolveBaseEPNS_10RegisterIDERKNS_10IdentifierE
__ZN3AJ19FunctionCallDotNode12emitBytecodeERNS_17BytecodeGeneratorEPNS_10RegisterIDE
__ZN3AJ11NewExprNode12emitBytecodeERNS_17BytecodeGeneratorEPNS_10RegisterIDE
__ZN3AJ11ResolveNode12emitBytecodeERNS_17BytecodeGeneratorEPNS_10RegisterIDE
__ZN3ATF6VectorIN3AJ19ExpressionRangeInfoELm0EE14expandCapacityEm
__ZN3AJ17BytecodeGenerator11emitResolveEPNS_10RegisterIDERKNS_10IdentifierE
__ZN3ATF6VectorIN3AJ17GlobalResolveInfoELm0EE14expandCapacityEm
__ZN3AJ17BytecodeGenerator11addConstantERKNS_10IdentifierE
__ZN3ATF9HashTableINS_6RefPtrIN7Aphid10StringImplEEESt4pairIS4_iENS_18PairFirstExtractorIS6_EEN3AJ17IdentifierRepHashENS_14P
__ZN3ATF6VectorIN3AJ10IdentifierELm0EE14expandCapacityEmPKS2_
__ZN3ATF6VectorIN3AJ10IdentifierELm0EE15reserveCapacityEm
__ZN3AJ17BytecodeGenerator13emitConstructEPNS_10RegisterIDES2_PNS_13ArgumentsNodeEjjj
__ZN3ATF6VectorIN3AJ20GetByIdExceptionInfoELm0EE14expandCapacityEm
__ZN3AJ17BytecodeGenerator11emitGetByIdEPNS_10RegisterIDES2_RKNS_10IdentifierE
__ZN3ATF6VectorIN3AJ17StructureStubInfoELm0EE14expandCapacityEm
__ZN3ATF6VectorIN3AJ12CallLinkInfoELm0EE15reserveCapacityEm
__ZN3AJ17BytecodeGenerator15emitMethodCheckEv
__ZN3AJ17BytecodeGenerator8emitCallEPNS_10RegisterIDES2_S2_PNS_13ArgumentsNodeEjjj
__ZN3AJ17BytecodeGenerator8emitCallENS_8OpcodeIDEPNS_10RegisterIDES3_S3_PNS_13ArgumentsNodeEjjj
__ZN3AJ17BytecodeGenerator11emitPutByIdEPNS_10RegisterIDERKNS_10IdentifierES2_
__ZN3AJ17BytecodeGenerator16emitUnaryNoDstOpENS_8OpcodeIDEPNS_10RegisterIDE
__ZN3AJ12AJGlobalData22numericCompareFunctionEPNS_9AJExcStateE
__ZNK3AJ21UStringSourceProvider6lengthEv
__ZN3AJ18FunctionExecutable14fromGlobalCodeERKNS_10IdentifierEPNS_9AJExcStateEPNS_8DebuggerERKNS_10SourceCodeEPiPNS_7UStringE
__ZNK3AJ21UStringSourceProvider4dataEv
__ZN3AJ16FunctionBodyNode6createEPNS_12AJGlobalDataE
__ZN3AJ5Lexer10sourceCodeEiii
__ZN3AJ16FunctionBodyNode13finishParsingERKNS_10SourceCodeEPNS_13ParameterNodeERKNS_10IdentifierE
__ZN3ATF6VectorIN3AJ10IdentifierELm0EE14expandCapacityEm
__ZN3AJ16FunctionBodyNode13finishParsingEN3ATF10PassRefPtrINS_18FunctionParametersEEERKNS_10IdentifierE
__ZNK3AJ9ScopeNode15singleStatementEv
__ZNK3AJ17ExprStatementNode15isExprStatementEv
__ZNK3AJ12FuncExprNode14isFuncExprNodeEv
__ZThn16_N3AJ11ProgramNodeD0Ev
__ZN3AJ11ProgramNodeD0Ev
__ZN3AJ11ParserArenaD1Ev
__ZN3AJ14SourceElementsD1Ev
__ZThn16_N3AJ16FunctionBodyNodeD0Ev
__ZN3AJ16FunctionBodyNodeD0Ev
__ZN3AJ18FunctionExecutable7compileEPNS_9AJExcStateEPNS_14ScopeChainNodeE
__ZN3AJ6Parser5parseINS_16FunctionBodyNodeEEEN3ATF10PassRefPtrIT_EEPNS_12AJGlobalDataEPNS_8DebuggerEPNS_9AJExcStateERKNS_10Sour
__ZL11makeSubNodePN3AJ12AJGlobalDataEPNS_14ExpressionNodeES3_b
__ZN3AJ14ExpressionNode14stripUnaryPlusEv
__ZNK3AJ14ExpressionNode8isNumberEv
__ZN3AJ16FunctionBodyNode6createEPNS_12AJGlobalDataEPNS_14SourceElementsEPN3ATF6VectorISt4pairIPKNS_10IdentifierEjELm0EEEPNS6_
__ZN3AJ17BytecodeGeneratorC1EPNS_16FunctionBodyNodeEPKNS_8DebuggerERKNS_10ScopeChainEPN3ATF7HashMapINS9_6RefPtrIN7Aphid10Str
__ZN3AJ17BytecodeGeneratorC2EPNS_16FunctionBodyNodeEPKNS_8DebuggerERKNS_10ScopeChainEPN3ATF7HashMapINS9_6RefPtrIN7Aphid10Str
__ZN3AJ17BytecodeGenerator12addParameterERKNS_10IdentifierE
__ZN3AJ16FunctionBodyNode12emitBytecodeERNS_17BytecodeGeneratorEPNS_10RegisterIDE
__ZN3AJ9BlockNode12emitBytecodeERNS_17BytecodeGeneratorEPNS_10RegisterIDE
__ZN3AJ10ReturnNode12emitBytecodeERNS_17BytecodeGeneratorEPNS_10RegisterIDE
__ZN3AJ12BinaryOpNode12emitBytecodeERNS_17BytecodeGeneratorEPNS_10RegisterIDE
__ZNK3AJ11ResolveNode6isPureERNS_17BytecodeGeneratorE
__ZN3AJ17BytecodeGenerator7isLocalERKNS_10IdentifierE
__ZN3AJ17BytecodeGenerator12emitBinaryOpENS_8OpcodeIDEPNS_10RegisterIDES3_S3_NS_12OperandTypesE
__ZN3AJ17BytecodeGenerator10emitReturnEPNS_10RegisterIDE
__ZNK3AJ9BlockNode7isBlockEv
__ZNK3AJ10ReturnNode12isReturnNodeEv
__ZN3AJ9CodeBlock11shrinkToFitEv
__ZN3ATF6VectorIN3AJ11InstructionELm0EE14shrinkCapacityEm
__ZN3ATF6VectorIPN3AJ12CallLinkInfoELm0EE14shrinkCapacityEm
__ZN3ATF6VectorIN3AJ10IdentifierELm0EE14shrinkCapacityEm
__ZN3AJ17BytecodeGeneratorD2Ev
__ZN3ATF6VectorIN3AJ11InstructionELm0EEaSERKS3_
__ZN3AJ18FunctionExecutableD0Ev
__ZN3AJ17FunctionCodeBlockD0Ev
__ZN3AJ9CodeBlockD2Ev
__ZN3AJ21UStringSourceProviderD0Ev
__ZNK3AJ8AJObject8toObjectEPNS_9AJExcStateE
__ZN3AJ11Interpreter7executeEPNS_17ProgramExecutableEPNS_9AJExcStateEPNS_14ScopeChainNodeEPNS_8AJObjectEPNS_7AJValueE
__ZN3AJ12AJGlobalData14resetDateCacheEv
__ZN3AJ12RegisterFile12globalObjectEv
__ZN3AJ14AJGlobalObject13copyGlobalsToERNS_12RegisterFileE
__ZN3AJ12RegisterFile15setGlobalObjectEPNS_14AJGlobalObjectE
__ZN3AJ17ProgramExecutable15generateJITCodeEPNS_9AJExcStateEPNS_14ScopeChainNodeE
__ZN3AJ3JIT14privateCompileEv
__ZN3AJ3JIT22privateCompileMainPassEv
__ZN3AJ3JIT13emit_op_enterEPNS_11InstructionE
__ZN3AJ3JIT11emit_op_movEPNS_11InstructionE
__ZN3AJ3JIT22emit_op_resolve_globalEPNS_11InstructionEb
__ZN3AJ23MacroAssemblerX86Common4moveENS_12X86Registers10RegisterIDES2_
__ZN3ATF6VectorIN3AJ13SlowCaseEntryELm0EE14expandCapacityEmPKS2_
__ZN3ATF6VectorIN3AJ13SlowCaseEntryELm0EE14expandCapacityEm
__ZN3AJ3JIT17emit_op_get_by_idEPNS_11InstructionE
__ZN3AJ3JIT21compileGetByIdHotPathEiiPNS_10IdentifierEj
__ZN3AJ3JIT17emit_op_constructEPNS_11InstructionE
__ZN3AJ3JIT13compileOpCallENS_8OpcodeIDEPNS_11InstructionEj
__ZN3AJ11JITStubCall4callEv
__ZN3ATF6VectorIN3AJ10CallRecordELm0EE14expandCapacityEm
__ZN3AJ3JIT24emit_op_construct_verifyEPNS_11InstructionE
__ZN3AJ3JIT20emit_op_method_checkEPNS_11InstructionE
__ZN3ATF6VectorIN3AJ25MethodCallCompilationInfoELm0EE14expandCapacityEm
__ZN3AJ3JIT12emit_op_callEPNS_11InstructionE
__ZN3AJ3JIT17emit_op_put_by_idEPNS_11InstructionE
__ZN3AJ3JIT11emit_op_endEPNS_11InstructionE
__ZN3ATF6VectorIN3AJ9JumpTableELm0EE14shrinkCapacityEm
__ZN3AJ3JIT23privateCompileSlowCasesEv
__ZN3AJ3JIT26emitSlow_op_resolve_globalEPNS_11InstructionERPNS_13SlowCaseEntryE
__ZN3AJ20MacroAssemblerX86_648storePtrENS_22AbstractMacroAssemblerINS_12X86AssemblerEE6ImmPtrENS3_15ImplicitAddressE
__ZN3AJ11JITStubCall4callEj
__ZN3AJ3JIT21emitSlow_op_get_by_idEPNS_11InstructionERPNS_13SlowCaseEntryE
__ZN3AJ3JIT22compileGetByIdSlowCaseEiiPNS_10IdentifierERPNS_13SlowCaseEntryEb
__ZN3AJ3JIT21emitSlow_op_constructEPNS_11InstructionERPNS_13SlowCaseEntryE
__ZN3AJ3JIT21compileOpCallSlowCaseEPNS_11InstructionERPNS_13SlowCaseEntryEjNS_8OpcodeIDE
__ZN3AJ3JIT27compileOpConstructSetupArgsEPNS_11InstructionE
__ZN3AJ3JIT28emitSlow_op_construct_verifyEPNS_11InstructionERPNS_13SlowCaseEntryE
__ZN3AJ3JIT24emitSlow_op_method_checkEPNS_11InstructionERPNS_13SlowCaseEntryE
__ZN3AJ3JIT16emitSlow_op_callEPNS_11InstructionERPNS_13SlowCaseEntryE
__ZN3AJ3JIT22compileOpCallSetupArgsEPNS_11InstructionE
__ZN3AJ3JIT21emitSlow_op_put_by_idEPNS_11InstructionERPNS_13SlowCaseEntryE
__ZN3ATF6VectorIN3AJ18MethodCallLinkInfoELm0EE14expandCapacityEm
__ZN3AJ17BytecodeGenerator18dumpsGeneratedCodeEv
_ctiTrampoline
_cti_op_resolve_global
_cti_op_get_by_id
__ZNK3AJ7AJValue3getEPNS_9AJExcStateERKNS_10IdentifierERNS_12PropertySlotE
_cti_op_construct_NotAJonstruct
__ZN3AJ15DateConstructor16getConstructDataERNS_13ConstructDataE
__ZN3AJL28constructWithDateConstructorEPNS_9AJExcStateEPNS_8AJObjectERKNS_7ArgListE
__ZN3AJ13constructDateEPNS_9AJExcStateERKNS_7ArgListE
__ZN3AJ12DateInstanceC1EPNS_9AJExcStateEd
__ZN3AJ12DateInstanceC2EPNS_9AJExcStateEd
__ZN3ATF8timeClipEd
_cti_op_get_by_id_method_check
__ZN3AJ13DatePrototype18getOwnPropertySlotEPNS_9AJExcStateERKNS_10IdentifierERNS_12PropertySlotE
__ZN3AJ23setUpStaticFunctionSlotEPNS_9AJExcStateEPKNS_9HashEntryEPNS_8AJObjectERKNS_10IdentifierERNS_12PropertySlotE
__ZN3AJ9Structure13hasTransitionEPN7Aphid10StringImplEj
_cti_vm_lazyLinkCall
__ZN3AJL20dateProtoFuncGetTimeEPNS_9AJExcStateEPNS_8AJObjectENS_7AJValueERKNS_7ArgListE
__ZNK3AJ12DateInstance9classInfoEv
_cti_op_put_by_id
__ZN3AJ14AJGlobalObject3putEPNS_9AJExcStateERKNS_10IdentifierENS_7AJValueERNS_15PutPropertySlotE
__ZN3AJ8AJObject3putEPNS_9AJExcStateERKNS_10IdentifierENS_7AJValueERNS_15PutPropertySlotE
__ZN3AJ17ProgramExecutableD0Ev
__ZN3AJ16ProgramCodeBlockD0Ev
__ZN3ATF9HashTableIPN3AJ15GlobalCodeBlockES3_NS_17IdentityExtractorIS3_EENS_7PtrHashIS3_EENS_10HashTraitsIS3_EES9_E4findIS3_NS
__ZN3AJ17StructureStubInfo5derefEv
__ZN7Aphid6String8truncateEj
__ZN3AJ5Lexer10skipRegExpEv
__ZNK3AJ14ExpressionNode10isLocationEv
__ZN3ATF6VectorIPN3AJ16FunctionBodyNodeELm0EE14expandCapacityEm
__ZNK3AJ18EmptyStatementNode16isEmptyStatementEv
__ZN3ATF6VectorISt4pairIPKN3AJ10IdentifierEjELm0EE14expandCapacityEm
__ZN3AJ8AJObject12removeDirectERKNS_10IdentifierE
__ZN3AJ9Structure24removePropertyTransitionEPS0_RKNS_10IdentifierERm
__ZN3AJ9Structure6removeERKNS_10IdentifierE
__ZN3AJ17BytecodeGenerator12addGlobalVarERKNS_10IdentifierEbRPNS_10RegisterIDE
__ZN3AJ17BytecodeGenerator15emitNewFunctionEPNS_10RegisterIDEPNS_16FunctionBodyNodeE
__ZN3ATF6VectorINS_6RefPtrIN3AJ18FunctionExecutableEEELm0EE14expandCapacityEm
__ZN3AJ9Structure31removePropertyWithoutTransitionERKNS_10IdentifierE
__ZNK3AJ8AJObject11hasPropertyEPNS_9AJExcStateERKNS_10IdentifierE
__ZNK3AJ7UString14toStrictUInt32EPb
__ZN7Aphid12AtomicString4findEPKtjj
__ZN3ATF9HashTableINS_6RefPtrIN7Aphid10StringImplEEESt4pairIS4_N3AJ16SymbolTableEntryEENS_18PairFirstExtractorIS8_EENS6_17Id
__ZN3AJL30comparePropertyMapEntryIndicesEPKvS1_
__ZN3AJ13AssignDotNode12emitBytecodeERNS_17BytecodeGeneratorEPNS_10RegisterIDE
__ZNK3AJ14ExpressionNode6isPureERNS_17BytecodeGeneratorE
__ZN3AJ17BytecodeGenerator8emitMoveEPNS_10RegisterIDES2_
__ZN3AJ17ObjectLiteralNode12emitBytecodeERNS_17BytecodeGeneratorEPNS_10RegisterIDE
__ZN3AJ17BytecodeGenerator13emitNewObjectEPNS_10RegisterIDE
__ZN3AJ21FunctionCallValueNode12emitBytecodeERNS_17BytecodeGeneratorEPNS_10RegisterIDE
__ZN3AJ12FuncExprNode12emitBytecodeERNS_17BytecodeGeneratorEPNS_10RegisterIDE
__ZN3AJ17BytecodeGenerator25emitNewFunctionExpressionEPNS_10RegisterIDEPNS_12FuncExprNodeE
__ZN3AJ12FuncDeclNode12emitBytecodeERNS_17BytecodeGeneratorEPNS_10RegisterIDE
__ZN3AJ15DotAccessorNode12emitBytecodeERNS_17BytecodeGeneratorEPNS_10RegisterIDE
__ZN3AJ16VarStatementNode12emitBytecodeERNS_17BytecodeGeneratorEPNS_10RegisterIDE
__ZN3AJ17BytecodeGenerator15isLocalConstantERKNS_10IdentifierE
__ZN3AJ16ArgumentListNode12emitBytecodeERNS_17BytecodeGeneratorEPNS_10RegisterIDE
__ZN3AJ11BooleanNode12emitBytecodeERNS_17BytecodeGeneratorEPNS_10RegisterIDE
__ZN3AJ17BytecodeGenerator8emitLoadEPNS_10RegisterIDEb
__ZN3AJ9ArrayNode12emitBytecodeERNS_17BytecodeGeneratorEPNS_10RegisterIDE
__ZN3AJ17BytecodeGenerator12emitNewArrayEPNS_10RegisterIDEPNS_11ElementNodeE
__ZN3AJ23FunctionCallResolveNode12emitBytecodeERNS_17BytecodeGeneratorEPNS_10RegisterIDE
__ZN3AJ17BytecodeGenerator19emitResolveWithBaseEPNS_10RegisterIDES2_RKNS_10IdentifierE
__ZN3AJ10NumberNode12emitBytecodeERNS_17BytecodeGeneratorEPNS_10RegisterIDE
__ZN3AJ17BytecodeGenerator8emitLoadEPNS_10RegisterIDEd
__ZN3ATF9HashTableIdSt4pairIdN3AJ7AJValueEENS_18PairFirstExtractorIS4_EENS_9FloatHashIdEENS_14PairHashTraitsINS_10HashTraitsId
__ZN3AJ10StringNode12emitBytecodeERNS_17BytecodeGeneratorEPNS_10RegisterIDE
__ZN3AJ17BytecodeGenerator8emitLoadEPNS_10RegisterIDERKNS_10IdentifierE
__ZN3ATF9HashTableIPN7Aphid10StringImplESt4pairIS3_PN3AJ8AJStringEENS_18PairFirstExtractorIS8_EENS5_17IdentifierRepHashENS_1
__ZN3AJ12SmallStrings27createSingleCharacterStringEPNS_12AJGlobalDataEh
__ZN3AJ8NullNode12emitBytecodeERNS_17BytecodeGeneratorEPNS_10RegisterIDE
__ZN3AJ15ParserArenaDataIN3ATF6VectorIPNS_16FunctionBodyNodeELm0EEEED1Ev
__ZN3AJ15ParserArenaDataIN3ATF6VectorISt4pairIPKNS_10IdentifierEjELm0EEEED1Ev
__ZN3AJ3JIT16emit_op_new_funcEPNS_11InstructionE
__ZN3AJ3JIT18emit_op_new_objectEPNS_11InstructionE
__ZN3AJ3JIT20emit_op_new_func_expEPNS_11InstructionE
__ZN3AJ3JIT17emit_op_new_arrayEPNS_11InstructionE
__ZN3AJ3JIT25emit_op_resolve_with_baseEPNS_11InstructionE
_cti_op_new_func
__ZN3AJ10AJFunctionC1EPNS_9AJExcStateEN3ATF17NonNullPassRefPtrINS_18FunctionExecutableEEEPNS_14ScopeChainNodeE
_cti_op_new_object
_cti_op_new_func_exp
_cti_op_call_AJFunction
__ZN3AJ18FunctionExecutable15generateJITCodeEPNS_9AJExcStateEPNS_14ScopeChainNodeE
__ZN3ATF7HashSetINS_6RefPtrIN7Aphid10StringImplEEEN3AJ17IdentifierRepHashENS_10HashTraitsIS4_EEE3addERKS4_
__ZN3ATF9HashTableINS_6RefPtrIN7Aphid10StringImplEEES4_NS_17IdentityExtractorIS4_EEN3AJ17IdentifierRepHashENS_10HashTraitsIS
__ZN3AJ17BytecodeGenerator6addVarERKNS_10IdentifierEbRPNS_10RegisterIDE
__ZNK3AJ16JSVariableObject16isVariableObjectEv
__ZN3AJ17BytecodeGenerator16emitGetScopedVarEPNS_10RegisterIDEmiNS_7AJValueE
__ZNK3AJ13StatementNode12isReturnNodeEv
__ZN3AJ3JIT29emit_op_enter_with_activationEPNS_11InstructionE
__ZN3AJ3JIT22emit_op_get_global_varEPNS_11InstructionE
__ZN3AJ3JIT29emitGetVariableObjectRegisterENS_12X86Registers10RegisterIDEiS2_
__ZN3AJ3JIT27emit_op_tear_off_activationEPNS_11InstructionE
__ZN3AJ11JITStubCall11addArgumentEjNS_12X86Registers10RegisterIDE
__ZN3AJ3JIT11emit_op_retEPNS_11InstructionE
_cti_register_file_check
_cti_op_push_activation
__ZN3AJ12JSActivationC1EPNS_9AJExcStateEN3ATF17NonNullPassRefPtrINS_18FunctionExecutableEEE
__ZN3AJ12JSActivationC2EPNS_9AJExcStateEN3ATF17NonNullPassRefPtrINS_18FunctionExecutableEEE
_cti_op_tear_off_activation
_cti_op_ret_scopeChain
__ZN3AJ10AJFunction18getOwnPropertySlotEPNS_9AJExcStateERKNS_10IdentifierERNS_12PropertySlotE
__ZN3AJ9Structure18transitionTableAddERKSt4pairIN3ATF6RefPtrIN7Aphid10StringImplEEEjEPS0_PNS_6AJCellE
__ZN3ATF7HashMapISt4pairINS_6RefPtrIN7Aphid10StringImplEEEjES1_IPN3AJ9StructureES9_ENS7_28StructureTransitionTableHashENS7_3
__ZN3ATF9HashTableISt4pairINS_6RefPtrIN7Aphid10StringImplEEEjES1_IS6_S1_IPN3AJ9StructureES9_EENS_18PairFirstExtractorISB_EEN
_cti_op_new_array
__ZN3AJ7AJArrayC1EN3ATF17NonNullPassRefPtrINS_9StructureEEERKNS_7ArgListE
_cti_op_construct_AJonstruct
__ZNK3AJ10NumberNode6isPureERNS_17BytecodeGeneratorE
__ZN3AJ8ThisNode12emitBytecodeERNS_17BytecodeGeneratorEPNS_10RegisterIDE
__ZN3AJ3JIT20emit_op_convert_thisEPNS_11InstructionE
__ZN3AJ3JIT24emitSlow_op_convert_thisEPNS_11InstructionERPNS_13SlowCaseEntryE
_cti_op_resolve_with_base
__ZN3AJ10AJFunction11getCallDataERNS_8CallDataE
__ZNK3AJ7ArgList8getSliceEiRS0_
__ZN3AJ9Structure22materializePropertyMapEv
_cti_op_end
__ZNK7Aphid6String7toFloatEPb
__ZN7Aphid10StringImpl7toFloatEPb
__ZN7Aphid17charactersToFloatEPKtmPb
__ZN7AphideqERKNS_12AtomicStringEPKc
__ZNK7Aphid6String5toIntEPb
__ZN7Aphid10StringImpl5toIntEPb
__ZN7Aphid15charactersToIntEPKtmPb
__ZN7Aphid6String6numberEi
__ZNK7Aphid6String11toIntStrictEPbi
__ZN7Aphid10StringImpl11toIntStrictEPbi
__ZN7Aphid21charactersToIntStrictEPKtmPbi
__ZN7Aphid10StringImpl7replaceEPS0_S1_
__ZN7Aphid6String6numberEt
__ZL11makeDivNodePN3AJ12AJGlobalDataEPNS_14ExpressionNodeES3_b
__ZNK3AJ10NumberNode8isNumberEv
__ZN3ATF6VectorIPvLm0EE14expandCapacityEm
__ZN3ATF6VectorIjLm16EE6resizeEm
__ZN3ATFL7multaddERNS_6BigIntEii
__ZN3ATF6VectorIjLm16EEaSERKS1_
__ZN3ATFL4multERNS_6BigIntERKS0_
__ZL11makeAddNodePN3AJ12AJGlobalDataEPNS_14ExpressionNodeES3_b
__ZN3ATF6VectorIPNS0_IN3AJ10IdentifierELm64EEELm32EE15reserveCapacityEm
__ZL14makePrefixNodePN3AJ12AJGlobalDataEPNS_14ExpressionNodeENS_8OperatorEiii
__ZN3ATF6VectorIPN3AJ10RegisterIDELm32EE15reserveCapacityEm
__ZN3AJ16PropertyListNode12emitBytecodeERNS_17BytecodeGeneratorEPNS_10RegisterIDE
__ZN3AJ15ConditionalNode12emitBytecodeERNS_17BytecodeGeneratorEPNS_10RegisterIDE
__ZN3AJ17BytecodeGenerator8newLabelEv
__ZNK3AJ14ExpressionNode26hasConditionContextCodegenEv
__ZN3AJ17BytecodeGenerator15emitJumpIfFalseEPNS_10RegisterIDEPNS_5LabelE
__ZN3AJ17BytecodeGenerator8emitJumpEPNS_5LabelE
__ZN3AJ17BytecodeGenerator9emitLabelEPNS_5LabelE
__ZN3ATF6VectorIjLm0EE14expandCapacityEm
__ZN3AJ17BytecodeGenerator14emitPutByIndexEPNS_10RegisterIDEjS2_
__ZN3AJ6IfNode12emitBytecodeERNS_17BytecodeGeneratorEPNS_10RegisterIDE
__ZNK3AJ14LogicalNotNode26hasConditionContextCodegenEv
__ZN3AJ11UnaryOpNode12emitBytecodeERNS_17BytecodeGeneratorEPNS_10RegisterIDE
__ZN3AJ17BytecodeGenerator11emitUnaryOpENS_8OpcodeIDEPNS_10RegisterIDES3_
__ZNK3AJ10StringNode6isPureERNS_17BytecodeGeneratorE
__ZNK3AJ14ExpressionNode5isAddEv
__ZN3AJ7ForNode12emitBytecodeERNS_17BytecodeGeneratorEPNS_10RegisterIDE
__ZN3AJ17BytecodeGenerator13newLabelScopeENS_10LabelScope4TypeEPKNS_10IdentifierE
__ZN3AJ19BracketAccessorNode12emitBytecodeERNS_17BytecodeGeneratorEPNS_10RegisterIDE
__ZN3AJ17BytecodeGenerator12emitGetByValEPNS_10RegisterIDES2_S2_
__ZN3AJ17PrefixResolveNode12emitBytecodeERNS_17BytecodeGeneratorEPNS_10RegisterIDE
__ZN3AJ17BytecodeGenerator10emitPreIncEPNS_10RegisterIDE
__ZN3AJ17BytecodeGenerator14emitJumpIfTrueEPNS_10RegisterIDEPNS_5LabelE
__ZN3AJ3JIT11emit_op_divEPNS_11InstructionE
__ZN3AJ20MacroAssemblerX86_649branchPtrENS_23MacroAssemblerX86Common9ConditionENS_12X86Registers10RegisterIDES4_
__ZN3AJ12X86Assembler11cvtsi2sd_rrENS_12X86Registers10RegisterIDENS1_13XMMRegisterIDE
__ZN3AJ12X86Assembler23X86InstructionFormatter9twoByteOpENS0_15TwoByteOpcodeIDEiNS_12X86Registers10RegisterIDE
__ZN3AJ12X86Assembler7movq_rrENS_12X86Registers10RegisterIDENS1_13XMMRegisterIDE
__ZN3AJ23MacroAssemblerX86Common4moveENS_22AbstractMacroAssemblerINS_12X86AssemblerEE5Imm32ENS_12X86Registers10RegisterIDE
__ZN3AJ15AssemblerBuffer7putByteEi
__ZN3AJ3JIT14emit_op_jfalseEPNS_11InstructionE
__ZN3AJ20MacroAssemblerX86_649branchPtrENS_23MacroAssemblerX86Common9ConditionENS_12X86Registers10RegisterIDENS_22AbstractMacr
__ZN3ATF6VectorIN3AJ9JumpTableELm0EE14expandCapacityEmPKS2_
__ZN3ATF6VectorIN3AJ9JumpTableELm0EE14expandCapacityEm
__ZN3AJ3JIT11emit_op_jmpEPNS_11InstructionE
__ZN3AJ3JIT20emit_op_put_by_indexEPNS_11InstructionE
__ZN3AJ3JIT13emit_op_jtrueEPNS_11InstructionE
__ZN3AJ3JIT11emit_op_addEPNS_11InstructionE
__ZN3AJ3JIT18emit_op_get_by_valEPNS_11InstructionE
__ZN3AJ20MacroAssemblerX86_649branchPtrENS_23MacroAssemblerX86Common9ConditionENS_22AbstractMacroAssemblerINS_12X86AssemblerEE
__ZN3AJ12X86Assembler23X86InstructionFormatter11oneByteOp64ENS0_15OneByteOpcodeIDEiNS_12X86Registers10RegisterIDES4_ii
__ZN3AJ3JIT15emit_op_pre_incEPNS_11InstructionE
__ZN3AJ3JIT16emitTimeoutCheckEv
__ZN3AJ3JIT13emit_op_jlessEPNS_11InstructionE
__ZN3AJ3JIT15emitSlow_op_divEPNS_11InstructionERPNS_13SlowCaseEntryE
__ZN3AJ3JIT18emitSlow_op_jfalseEPNS_11InstructionERPNS_13SlowCaseEntryE
__ZN3AJ23MacroAssemblerX86Common12branchTest32ENS0_9ConditionENS_12X86Registers10RegisterIDENS_22AbstractMacroAssemblerINS_12X
__ZN3AJ3JIT17emitSlow_op_jtrueEPNS_11InstructionERPNS_13SlowCaseEntryE
__ZN3AJ3JIT22emitSlow_op_get_by_valEPNS_11InstructionERPNS_13SlowCaseEntryE
__ZN3AJ3JIT27stringGetByValStubGeneratorEPNS_12AJGlobalDataEPNS_14ExecutablePoolE
__ZN3AJ15AssemblerBuffer14executableCopyEPNS_14ExecutablePoolE
__ZN3AJ3JIT19emitSlow_op_pre_incEPNS_11InstructionERPNS_13SlowCaseEntryE
__ZN3AJ11JITStubCall11addArgumentENS_12X86Registers10RegisterIDE
__ZN3AJ3JIT17emitSlow_op_jlessEPNS_11InstructionERPNS_13SlowCaseEntryE
__ZN3AJ23MacroAssemblerX86Common12branchDoubleENS0_15DoubleConditionENS_12X86Registers13XMMRegisterIDES3_
__ZNK3AJ13LogicalOpNode26hasConditionContextCodegenEv
__ZN3AJ13LogicalOpNode30emitBytecodeInConditionContextERNS_17BytecodeGeneratorEPNS_5LabelES4_b
__ZN3AJ21ReadModifyResolveNode12emitBytecodeERNS_17BytecodeGeneratorEPNS_10RegisterIDE
__ZN3AJ3JIT11emit_op_subEPNS_11InstructionE
__ZN3AJ3JIT20compileBinaryArithOpENS_8OpcodeIDEjjjNS_12OperandTypesE
__ZN3AJ3JIT15emitSlow_op_subEPNS_11InstructionERPNS_13SlowCaseEntryE
__ZN3AJ3JIT28compileBinaryArithOpSlowCaseENS_8OpcodeIDERPNS_13SlowCaseEntryEjjjNS_12OperandTypesEbb
__ZN3AJ3JIT15emitSlow_op_addEPNS_11InstructionERPNS_13SlowCaseEntryE
__ZNK3AJ14AJGlobalObject14isDynamicScopeERb
_cti_op_jtrue
__ZNK3AJ8AJObject9toBooleanEPNS_9AJExcStateE
__ZNK3AJ8AJObject24getPropertySpecificValueEPNS_9AJExcStateERKNS_10IdentifierERPNS_6AJCellE
__ZN3AJ27ctiPatchCallByReturnAddressEPNS_9CodeBlockENS_16ReturnAddressPtrENS_11FunctionPtrE
__ZN3AJ3JIT8linkCallEPNS_10AJFunctionEPNS_9CodeBlockES4_RNS_7JITCodeEPNS_12CallLinkInfoEiPNS_12AJGlobalDataE
_cti_op_add
__ZN3AJ13jsAddSlowCaseEPNS_9AJExcStateENS_7AJValueES2_
__ZNK3AJ8AJString11toPrimitiveEPNS_9AJExcStateENS_22PreferredPrimitiveTypeE
__ZNK3AJ7AJValue8toStringEPNS_9AJExcStateE
__ZN3AJ7UString4fromEi
__ZNK3AJ8AJString11resolveRopeEPNS_9AJExcStateE
__ZN3ATF13tryFastMallocEm
__ZN7Aphid10StringImpl4findEPKcib
__ZN3AJ13LogicalOpNode12emitBytecodeERNS_17BytecodeGeneratorEPNS_10RegisterIDE
__ZNK3AJ14ExpressionNode6isNullEv
__ZN3AJ3JIT11emit_op_neqEPNS_11InstructionE
__ZN3AJ12X86Assembler8shll_i8rEiNS_12X86Registers10RegisterIDE
__ZN3AJ12X86Assembler6orl_irEiNS_12X86Registers10RegisterIDE
__ZN3AJ3JIT15emitSlow_op_neqEPNS_11InstructionERPNS_13SlowCaseEntryE
_cti_op_call_arityCheck
_cti_op_eq
__ZN3AJ9JITThunks15tryCacheGetByIDEPNS_9AJExcStateEPNS_9CodeBlockENS_16ReturnAddressPtrENS_7AJValueERKNS_10IdentifierERKNS_12Pr
__ZN3AJ14StructureChainC1EPNS_9StructureE
__ZN3AJ14StructureChainC2EPNS_9StructureE
__ZN3AJ3JIT26privateCompileGetByIdChainEPNS_17StructureStubInfoEPNS_9StructureEPNS_14StructureChainEmRKNS_10IdentifierERKNS_12
__ZN3AJ3JIT22compileGetDirectOffsetEPNS_8AJObjectENS_12X86Registers10RegisterIDES4_m
_cti_op_get_by_id_self_fail
__ZN3AJ3JIT29privateCompileGetByIdSelfListEPNS_17StructureStubInfoEPNS_30PolymorphicAccessStructureListEiPNS_9StructureERKNS_1
_cti_op_get_by_id_custom_stub
__ZN3AJ10MathObject18getOwnPropertySlotEPNS_9AJExcStateERKNS_10IdentifierERNS_12PropertySlotE
__ZN3AJL16mathProtoFuncMaxEPNS_9AJExcStateEPNS_8AJObjectENS_7AJValueERKNS_7ArgListE
__ZL17combineCommaNodesPN3AJ12AJGlobalDataEPNS_14ExpressionNodeES3_
__ZNK3AJ14ExpressionNode11isCommaNodeEv
__ZNK3AJ9CommaNode11isCommaNodeEv
__ZN3AJ9CommaNode12emitBytecodeERNS_17BytecodeGeneratorEPNS_10RegisterIDE
__ZN3AJ19ReverseBinaryOpNode12emitBytecodeERNS_17BytecodeGeneratorEPNS_10RegisterIDE
__ZN3AJ9BreakNode12emitBytecodeERNS_17BytecodeGeneratorEPNS_10RegisterIDE
__ZN3AJ17BytecodeGenerator11breakTargetERKNS_10IdentifierE
__ZN3AJ17BytecodeGenerator14emitJumpScopesEPNS_5LabelEi
__ZN3AJ9CommaNodeD1Ev
__ZN3AJ3JIT14emit_op_jnlessEPNS_11InstructionE
__ZN3AJ3JIT18emitSlow_op_jnlessEPNS_11InstructionERPNS_13SlowCaseEntryE
__ZN3AJ7AJArray18getOwnPropertySlotEPNS_9AJExcStateERKNS_10IdentifierERNS_12PropertySlotE
_cti_op_jless
__ZN3AJ3JIT33privateCompilePatchGetArrayLengthENS_16ReturnAddressPtrE
__ZN3AJ3JIT16patchGetByIdSelfEPNS_9CodeBlockEPNS_17StructureStubInfoEPNS_9StructureEmNS_16ReturnAddressPtrE
__ZNK3AJ7AddNode5isAddEv
__ZN3AJ9JITThunks15tryCachePutByIDEPNS_9AJExcStateEPNS_9CodeBlockENS_16ReturnAddressPtrENS_7AJValueERKNS_15PutPropertySlotEPNS_
_cti_op_negate
__ZN3AJ7UString4fromEj
__ZL12makeMultNodePN3AJ12AJGlobalDataEPNS_14ExpressionNodeES3_b
__ZN3AJ9EqualNode12emitBytecodeERNS_17BytecodeGeneratorEPNS_10RegisterIDE
__ZN3AJ17BytecodeGenerator14emitEqualityOpENS_8OpcodeIDEPNS_10RegisterIDES3_S3_
__ZN3AJ3JIT11emit_op_notEPNS_11InstructionE
__ZN3AJ3JIT11emit_op_mulEPNS_11InstructionE
__ZN3AJ3JIT10emit_op_eqEPNS_11InstructionE
__ZN3AJ3JIT15emitSlow_op_notEPNS_11InstructionERPNS_13SlowCaseEntryE
__ZN3AJ3JIT15emitSlow_op_mulEPNS_11InstructionERPNS_13SlowCaseEntryE
__ZN3AJ3JIT14emitSlow_op_eqEPNS_11InstructionERPNS_13SlowCaseEntryE
_cti_op_not
__ZN3AJ17ReadModifyDotNode12emitBytecodeERNS_17BytecodeGeneratorEPNS_10RegisterIDE
__ZN3AJ17BytecodeGenerator10emitPreDecEPNS_10RegisterIDE
__ZN3AJ3JIT16emit_op_jnlesseqEPNS_11InstructionE
__ZN3AJ3JIT15emit_op_jlesseqEPNS_11InstructionEb
__ZN3AJ3JIT15emit_op_pre_decEPNS_11InstructionE
__ZN3AJ3JIT22emit_op_loop_if_lesseqEPNS_11InstructionE
__ZN3AJ3JIT20emitSlow_op_jnlesseqEPNS_11InstructionERPNS_13SlowCaseEntryE
__ZN3AJ3JIT19emitSlow_op_jlesseqEPNS_11InstructionERPNS_13SlowCaseEntryEb
__ZN3AJ3JIT19emitSlow_op_pre_decEPNS_11InstructionERPNS_13SlowCaseEntryE
__ZN3AJ3JIT26emitSlow_op_loop_if_lesseqEPNS_11InstructionERPNS_13SlowCaseEntryE
__ZN3AJ17powThunkGeneratorEPNS_12AJGlobalDataEPNS_14ExecutablePoolE
__ZN3AJ19SpecializedThunkJIT12returnDoubleENS_12X86Registers13XMMRegisterIDE
__ZN3AJ19SpecializedThunkJITD1Ev
__ZN3AJL16mathProtoFuncSinEPNS_9AJExcStateEPNS_8AJObjectENS_7AJValueERKNS_7ArgListE
__ZN3AJL16mathProtoFuncMinEPNS_9AJExcStateEPNS_8AJObjectENS_7AJValueERKNS_7ArgListE
__ZN3AJL18mathProtoFuncRoundEPNS_9AJExcStateEPNS_8AJObjectENS_7AJValueERKNS_7ArgListE
__ZN3AJL16mathProtoFuncLogEPNS_9AJExcStateEPNS_8AJObjectENS_7AJValueERKNS_7ArgListE
__ZN3AJ3JIT20patchMethodCallProtoEPNS_9CodeBlockERNS_18MethodCallLinkInfoEPNS_10AJFunctionEPNS_9StructureEPNS_8AJObjectENS_16R
__ZN3AJ3JIT31privateCompilePutByIdTransitionEPNS_17StructureStubInfoEPNS_9StructureES4_mPNS_14StructureChainENS_16ReturnAddres
__ZN3AJ3JIT13testPrototypeEPNS_9StructureERNS_22AbstractMacroAssemblerINS_12X86AssemblerEE8JumpListE
__ZN3AJL16mathProtoFuncAbsEPNS_9AJExcStateEPNS_8AJObjectENS_7AJValueERKNS_7ArgListE
_cti_op_jlesseq
__ZN3ATF6VectorIPN3AJ12CallLinkInfoELm0EE15reserveCapacityEm
__ZN3AJ10IfElseNode12emitBytecodeERNS_17BytecodeGeneratorEPNS_10RegisterIDE
__ZN3AJ17TypeOfResolveNode12emitBytecodeERNS_17BytecodeGeneratorEPNS_10RegisterIDE
__ZN3AJ7TryNode12emitBytecodeERNS_17BytecodeGeneratorEPNS_10RegisterIDE
__ZN3AJ17BytecodeGenerator9emitCatchEPNS_10RegisterIDEPNS_5LabelES4_
__ZN3AJ9CodeBlock25createRareDataIfNecessaryEv
__ZN3ATF6VectorIN3AJ11HandlerInfoELm0EE14expandCapacityEm
__ZN3AJ17BytecodeGenerator16emitPushNewScopeEPNS_10RegisterIDERKNS_10IdentifierES2_
__ZN3ATF6VectorIN3AJ18ControlFlowContextELm0EE14expandCapacityEm
__ZN3AJ15TypeOfValueNode12emitBytecodeERNS_17BytecodeGeneratorEPNS_10RegisterIDE
__ZN3AJeqERKNS_7UStringEPKc
__ZN3AJ17BytecodeGenerator12emitPopScopeEv
__ZN3ATF6VectorIN3AJ15SimpleJumpTableELm0EE14shrinkCapacityEm
__ZN3ATF6VectorIN3AJ15StringJumpTableELm0EE14shrinkCapacityEm
__ZN3AJ3JIT13emit_op_catchEPNS_11InstructionE
__ZN3AJ3JIT22emit_op_push_new_scopeEPNS_11InstructionE
__ZN3AJ3JIT15emit_op_resolveEPNS_11InstructionE
__ZN3AJ3JIT20emit_op_resolve_baseEPNS_11InstructionE
__ZN3AJ3JIT17emit_op_pop_scopeEPNS_11InstructionE
__ZL15makePostfixNodePN3AJ12AJGlobalDataEPNS_14ExpressionNodeENS_8OperatorEiii
__ZN3AJ12BinaryOpNode10emitStrcatERNS_17BytecodeGeneratorEPNS_10RegisterIDES4_PNS_21ReadModifyResolveNodeE
__ZNK3AJ10StringNode8isStringEv
__ZNK3AJ14ExpressionNode8isStringEv
__ZN3AJ17BytecodeGenerator15emitToPrimitiveEPNS_10RegisterIDES2_
__ZN3AJ17BytecodeGenerator10emitStrcatEPNS_10RegisterIDES2_i
__ZN3AJ18PostfixResolveNode12emitBytecodeERNS_17BytecodeGeneratorEPNS_10RegisterIDE
__ZN3AJ3JIT11emit_op_modEPNS_11InstructionE
__ZN3AJ23MacroAssemblerX86Common8branch32ENS0_9ConditionENS_12X86Registers10RegisterIDENS_22AbstractMacroAssemblerINS_12X86Ass
__ZN3AJ3JIT20emit_op_to_primitiveEPNS_11InstructionE
__ZN3AJ23MacroAssemblerX86Common4moveENS_22AbstractMacroAssemblerINS_12X86AssemblerEE6ImmPtrENS_12X86Registers10RegisterIDE
__ZN3AJ3JIT14emit_op_strcatEPNS_11InstructionE
__ZN3AJ3JIT15emitSlow_op_modEPNS_11InstructionERPNS_13SlowCaseEntryE
__ZN3AJ3JIT24emitSlow_op_to_primitiveEPNS_11InstructionERPNS_13SlowCaseEntryE
__ZN3AJL18mathProtoFuncFloorEPNS_9AJExcStateEPNS_8AJObjectENS_7AJValueERKNS_7ArgListE
__ZN3AJL17mathProtoFuncCeilEPNS_9AJExcStateEPNS_8AJObjectENS_7AJValueERKNS_7ArgListE
_cti_op_strcat
__ZNK3AJ19BracketAccessorNode10isLocationEv
__ZNK3AJ19BracketAccessorNode21isBracketAccessorNodeEv
__ZN3AJ17AssignBracketNode12emitBytecodeERNS_17BytecodeGeneratorEPNS_10RegisterIDE
__ZN3AJ17BytecodeGenerator12emitPutByValEPNS_10RegisterIDES2_S2_
__ZN3AJ3JIT18emit_op_put_by_valEPNS_11InstructionE
__ZN3AJ3JIT22emitSlow_op_put_by_valEPNS_11InstructionERPNS_13SlowCaseEntryE
__ZN3AJ14ArrayPrototype18getOwnPropertySlotEPNS_9AJExcStateERKNS_10IdentifierERNS_12PropertySlotE
__ZN3AJ14LogicalNotNode30emitBytecodeInConditionContextERNS_17BytecodeGeneratorEPNS_5LabelES4_b
__ZN3AJ8AJString18getOwnPropertySlotEPNS_9AJExcStateERKNS_10IdentifierERNS_12PropertySlotE
__ZN3AJ15StringPrototype18getOwnPropertySlotEPNS_9AJExcStateERKNS_10IdentifierERNS_12PropertySlotE
__ZN3AJ12StringObject18getOwnPropertySlotEPNS_9AJExcStateERKNS_10IdentifierERNS_12PropertySlotE
__ZN3AJL21stringProtoFuncSubstrEPNS_9AJExcStateEPNS_8AJObjectENS_7AJValueERKNS_7ArgListE
__ZNK3AJ7AJValue9toIntegerEPNS_9AJExcStateE
__ZN7Aphid10StringImpl6createEN3ATF10PassRefPtrIS0_EEjj
__ZN3ATF6RefPtrIN7Aphid10StringImplEED1Ev
__ZN3AJL18arrayProtoFuncJoinEPNS_9AJExcStateEPNS_8AJObjectENS_7AJValueERKNS_7ArgListE
__ZNK3AJ8AJObject12toThisObjectEPNS_9AJExcStateE
__ZN3ATF7HashSetIPN3AJ8AJObjectENS_7PtrHashIS3_EENS_10HashTraitsIS3_EEE3addERKS3_
__ZN3ATF9HashTableIPN3AJ8AJObjectES3_NS_17IdentityExtractorIS3_EENS_7PtrHashIS3_EENS_10HashTraitsIS3_EES9_E6rehashEi
__ZNK3AJ8AJObject3getEPNS_9AJExcStateERKNS_10IdentifierE
__ZN3AJ15AJStringBuilder5buildEPNS_9AJExcStateE
__ZN3ATF6VectorItLm64EE17tryExpandCapacityEm
__ZN3AJL18arrayProtoFuncPushEPNS_9AJExcStateEPNS_8AJObjectENS_7AJValueERKNS_7ArgListE
__ZN3AJ7AJArray4pushEPNS_9AJExcStateENS_7AJValueE
__ZN3ATF14tryFastReallocEPvm
__ZN3AJ4Heap15recordExtraCostEm
__ZN3AJ17BytecodeGenerator16emitPutScopedVarEmiPNS_10RegisterIDENS_7AJValueE
__ZN3AJ3JIT22emit_op_put_scoped_varEPNS_11InstructionE
__ZN3AJ3JIT29emitPutVariableObjectRegisterENS_12X86Registers10RegisterIDES2_i
__ZN3AJ3JIT22emit_op_put_global_varEPNS_11InstructionE
_cti_op_put_by_index
__ZN3AJ7AJArray3putEPNS_9AJExcStateEjNS_7AJValueE
__ZN3AJ7AJArray11putSlowCaseEPNS_9AJExcStateEjNS_7AJValueE
__ZNK3AJ11BooleanNode6isPureERNS_17BytecodeGeneratorE
__ZN3AJ10AJFunction3putEPNS_9AJExcStateERKNS_10IdentifierENS_7AJValueERNS_15PutPropertySlotE
__ZNK7Aphid12AtomicString5lowerEv
_cti_op_get_by_id_proto_list
__ZN3AJ3JIT30privateCompileGetByIdChainListEPNS_17StructureStubInfoEPNS_30PolymorphicAccessStructureListEiPNS_9StructureEPNS_1
__ZN3AJ3JIT22emit_op_get_scoped_varEPNS_11InstructionE
_cti_op_put_by_val
__ZNK3AJ12JSActivation14isDynamicScopeERb
__ZN3AJ24ApplyFunctionCallDotNode12emitBytecodeERNS_17BytecodeGeneratorEPNS_10RegisterIDE
__ZNK3AJ14ExpressionNode13isSimpleArrayEv
__ZN3AJ17BytecodeGenerator26emitJumpIfNotFunctionApplyEPNS_10RegisterIDEPNS_5LabelE
__ZN3AJ17BytecodeGenerator22willResolveToArgumentsERKNS_10IdentifierE
__ZN3AJ17BytecodeGenerator15emitLoadVarargsEPNS_10RegisterIDES2_
__ZN3AJ17BytecodeGenerator15emitCallVarargsEPNS_10RegisterIDES2_S2_S2_jjj
__ZN3AJ3JIT16emit_op_jneq_ptrEPNS_11InstructionE
__ZN3AJ3JIT20emit_op_load_varargsEPNS_11InstructionE
__ZN3AJ3JIT20emit_op_call_varargsEPNS_11InstructionE
__ZN3AJ3JIT20compileOpCallVarargsEPNS_11InstructionE
__ZN3AJ3JIT29compileOpCallVarargsSetupArgsEPNS_11InstructionE
__ZN3AJ3JIT24emitSlow_op_call_varargsEPNS_11InstructionERPNS_13SlowCaseEntryE
__ZN3AJ3JIT28compileOpCallVarargsSlowCaseEPNS_11InstructionERPNS_13SlowCaseEntryE
__ZN3AJ14ExecutablePool13systemReleaseERKNS0_10AllocationE
_AJStringCreateWithCFString
_AJStringRetain
_AJStringRelease
_AJEvaluateScript
__ZN3AJ4Heap14registerThreadEv
__ZNK14OpaqueAJString7ustringEv
__ZN3AJ7UStringC1EPKtj
__ZN3AJ5Lexer10scanRegExpERPKNS_10IdentifierES4_t
__ZN3AJ18ConstStatementNode12emitBytecodeERNS_17BytecodeGeneratorEPNS_10RegisterIDE
__ZN3AJ13ConstDeclNode12emitBytecodeERNS_17BytecodeGeneratorEPNS_10RegisterIDE
__ZN3AJ13ConstDeclNode14emitCodeSingleERNS_17BytecodeGeneratorE
__ZN3AJ17BytecodeGenerator16constRegisterForERKNS_10IdentifierE
__ZN3AJ10RegExpNode12emitBytecodeERNS_17BytecodeGeneratorEPNS_10RegisterIDE
__ZN3AJ6RegExp6createEPNS_12AJGlobalDataERKNS_7UStringES5_
__ZNK3AJ7UString4findEtj
__ZN3AJ4Yarr15jitCompileRegexEPNS_12AJGlobalDataERNS0_14RegexCodeBlockERKNS_7UStringERjRPKcbb
__ZN3AJ4Yarr12compileRegexERKNS_7UStringERNS0_12RegexPatternE
__ZN3AJ4Yarr6ParserINS0_23RegexPatternConstructorEE5parseEv
__ZN3AJ4Yarr18PatternDisjunction17addNewAlternativeEv
__ZN3ATF6VectorIPN3AJ4Yarr18PatternAlternativeELm0EE15reserveCapacityEm
__ZN3AJ4Yarr23RegexPatternConstructor20atomPatternCharacterEt
__ZN3ATF6VectorIN3AJ4Yarr11PatternTermELm0EE14expandCapacityEmPKS3_
__ZN3ATF6VectorIN3AJ4Yarr11PatternTermELm0EE14expandCapacityEm
__ZN3AJ4Yarr6ParserINS0_23RegexPatternConstructorEE11parseEscapeILb0ES2_EEbRT0_
__ZN3AJ4Yarr14RegexGenerator19generateDisjunctionEPNS0_18PatternDisjunctionE
__ZN3AJ12X86Assembler7addl_irEiNS_12X86Registers10RegisterIDE
__ZN3AJ23MacroAssemblerX86Common8branch32ENS0_9ConditionENS_12X86Registers10RegisterIDES3_
__ZN3AJ4Yarr14RegexGenerator12generateTermERNS1_19TermGenerationStateE
__ZN3AJ12X86Assembler23X86InstructionFormatter9oneByteOpENS0_15OneByteOpcodeIDEiNS_12X86Registers10RegisterIDES4_ii
__ZN3AJ4Yarr14RegexGenerator19TermGenerationState15jumpToBacktrackENS_22AbstractMacroAssemblerINS_12X86AssemblerEE4JumpEPNS_14
__ZN3AJ4Yarr14RegexGenerator19jumpIfCharNotEqualsEti
__ZN3AJ12X86Assembler7subl_irEiNS_12X86Registers10RegisterIDE
__ZN3AJ22AbstractMacroAssemblerINS_12X86AssemblerEE8JumpList4linkEPS2_
__ZN3ATF15deleteAllValuesIPN3AJ4Yarr18PatternDisjunctionELm4EEEvRKNS_6VectorIT_XT0_EEE
__ZN3ATF15deleteAllValuesIPN3AJ4Yarr14CharacterClassELm0EEEvRKNS_6VectorIT_XT0_EEE
__ZN3AJ17BytecodeGenerator8emitLoadEPNS_10RegisterIDEPNS_6RegExpE
__ZN3AJ12RegExpObjectC1EN3ATF17NonNullPassRefPtrINS_9StructureEEENS2_INS_6RegExpEEE
__ZN3AJ12RegExpObjectC2EN3ATF17NonNullPassRefPtrINS_9StructureEEENS2_INS_6RegExpEEE
__ZN3AJ4Yarr23RegexPatternConstructor30atomParenthesesSubpatternBeginEb
__ZN3AJ4Yarr25CharacterClassConstructor7putCharEt
__ZN3AJ4Yarr25CharacterClassConstructor9addSortedERN3ATF6VectorItLm0EEEt
__ZN3ATF6VectorItLm0EE14expandCapacityEm
__ZN3AJ4Yarr23RegexPatternConstructor21atomCharacterClassEndEv
__ZN3ATF6VectorIPN3AJ4Yarr14CharacterClassELm0EE14expandCapacityEmPKS4_
__ZN3ATF6VectorIPN3AJ4Yarr14CharacterClassELm0EE14expandCapacityEm
__ZN3ATF6VectorIPN3AJ4Yarr18PatternDisjunctionELm4EE14expandCapacityEm
__ZN3AJ4Yarr23RegexPatternConstructor23setupDisjunctionOffsetsEPNS0_18PatternDisjunctionEjj
__ZN3AJ4Yarr14RegexGenerator25generateParenthesesSingleERNS1_19TermGenerationStateE
__ZN3AJ4Yarr14RegexGenerator30generateParenthesesDisjunctionERNS0_11PatternTermERNS1_19TermGenerationStateEj
__ZN3ATF6VectorIN3AJ4Yarr14RegexGenerator26AlternativeBacktrackRecordELm0EE14expandCapacityEm
__ZN3AJ4Yarr14RegexGenerator28generateCharacterClassGreedyERNS1_19TermGenerationStateE
__ZN3AJ4Yarr14RegexGenerator19matchCharacterClassENS_12X86Registers10RegisterIDERNS_22AbstractMacroAssemblerINS_12X86Assembler
__ZN3AJ23MacroAssemblerX86Common4jumpEv
__ZN3AJ4Yarr14RegexGenerator13readCharacterEiNS_12X86Registers10RegisterIDE
__ZN3AJ12StringObject3putEPNS_9AJExcStateERKNS_10IdentifierENS_7AJValueERNS_15PutPropertySlotE
_AJContextGetGlobalObject
__ZN3ATF13wtfThreadDataEv
_AJClassCreate
__ZN13OpaqueAJClass6createEPK17AJClassDefinition
__ZN13OpaqueAJClassC2EPK17AJClassDefinitionPS_
__ZN3ATF7Unicode18convertUTF8ToUTF16EPPKcS2_PPtS4_b
_AJClassRetain
_AJObjectMake
__ZN3AJ16AJCallbackObjectINS_8AJObjectEE4initEPNS_9AJExcStateE
__ZN13OpaqueAJClass9prototypeEPN3AJ9AJExcStateE
__ZN13OpaqueAJClass11contextDataEPN3AJ9AJExcStateE
__ZN3ATF9HashTableIP13OpaqueAJClassSt4pairIS2_P24OpaqueAJClassContextDataENS_18PairFirstExtractorIS6_EENS_7PtrHashIS2_EENS_14Pa
__ZN24OpaqueAJClassContextDataC2EP13OpaqueAJClass
_AJStringCreateWithUTF8CString
_AJObjectSetProperty
__ZN3AJ12APIEntryShimC1EPNS_9AJExcStateEb
__ZNK14OpaqueAJString10identifierEPN3AJ12AJGlobalDataE
_AJClassRelease
_AJContextGetGlobalContext
_AJGlobalContextRetain
_AJObjectGetProperty
_AJValueToObject
_AJValueProtect
_AJObjectIsFunction
_AJObjectCallAsFunction
__ZN3AJ4callEPNS_9AJExcStateENS_7AJValueENS_8CallTypeERKNS_8CallDataES2_RKNS_7ArgListE
__ZN3AJ10AJFunction4callEPNS_9AJExcStateENS_7AJValueERKNS_7ArgListE
__ZN3AJ11Interpreter7executeEPNS_18FunctionExecutableEPNS_9AJExcStateEPNS_10AJFunctionEPNS_8AJObjectERKNS_7ArgListEPNS_14ScopeC
__ZNK3AJ8NullNode6isNullEv
__ZN3AJ3JIT16emit_op_neq_nullEPNS_11InstructionE
__ZNK3AJ19AJStaticScopeObject14isDynamicScopeERb
__ZN3AJ12RegExpObject18getOwnPropertySlotEPNS_9AJExcStateERKNS_10IdentifierERNS_12PropertySlotE
__ZN3AJL19regExpProtoFuncTestEPNS_9AJExcStateEPNS_8AJObjectENS_7AJValueERKNS_7ArgListE
__ZNK3AJ12RegExpObject9classInfoEv
__ZN3AJ12RegExpObject4testEPNS_9AJExcStateERKNS_7ArgListE
__ZN3AJ12RegExpObject5matchEPNS_9AJExcStateERKNS_7ArgListE
__ZN3AJ6RegExp5matchERKNS_7UStringEiPN3ATF6VectorIiLm32EEE
__ZN3AJ9WhileNode12emitBytecodeERNS_17BytecodeGeneratorEPNS_10RegisterIDE
__ZN3AJ15StrictEqualNode12emitBytecodeERNS_17BytecodeGeneratorEPNS_10RegisterIDE
__ZN3AJ3JIT16emit_op_stricteqEPNS_11InstructionE
__ZN3AJ3JIT17compileOpStrictEqEPNS_11InstructionENS0_21CompileOpStrictEqTypeE
__ZN3AJ3JIT17emit_op_nstricteqEPNS_11InstructionE
__ZN3AJ3JIT20emitSlow_op_stricteqEPNS_11InstructionERPNS_13SlowCaseEntryE
__ZN3AJ3JIT21emitSlow_op_nstricteqEPNS_11InstructionERPNS_13SlowCaseEntryE
__ZN3AJ12ContinueNode12emitBytecodeERNS_17BytecodeGeneratorEPNS_10RegisterIDE
__ZN3AJ17BytecodeGenerator14continueTargetERKNS_10IdentifierE
__ZN3AJL7dateNowEPNS_9AJExcStateEPNS_8AJObjectENS_7AJValueERKNS_7ArgListE
_cti_op_get_by_val
__ZN7Aphid10StringImpl5upperEv
_cti_op_get_by_id_generic
_cti_op_put_by_id_fail
__ZNK3AJ7UString8toUInt32EPbb
__ZNK3AJ7UString8toDoubleEbb
__ZNK3AJ7UString10UTF8StringEb
__ZN3AJ18globalFuncParseIntEPNS_9AJExcStateEPNS_8AJObjectENS_7AJValueERKNS_7ArgListE
__ZN3AJ12nonInlineNaNEv
__ZN3AJ15toInt32SlowCaseEdRb
__ZN3AJL8parseIntERKNS_7UStringEi
__ZN3AJ15globalFuncIsNaNEPNS_9AJExcStateEPNS_8AJObjectENS_7AJValueERKNS_7ArgListE
__ZNK7Aphid6String8toDoubleEPb
__ZN7Aphid10StringImpl8toDoubleEPb
__ZN3AJ4Yarr6ParserINS0_23RegexPatternConstructorEE11parseEscapeILb1ENS3_28CharacterClassParserDelegateEEEbRT0_
__ZN3AJ4Yarr12spacesCreateEv
__ZN3ATF6VectorIN3AJ4Yarr14CharacterRangeELm0EE14expandCapacityEmPKS3_
__ZN3ATF6VectorIN3AJ4Yarr14CharacterRangeELm0EE14expandCapacityEm
__ZN3AJ4Yarr25CharacterClassConstructor6appendEPKNS0_14CharacterClassE
__ZN3AJ4Yarr25CharacterClassConstructor14addSortedRangeERN3ATF6VectorINS0_14CharacterRangeELm0EEEtt
__ZN3AJ4Yarr6ParserINS0_23RegexPatternConstructorEE28CharacterClassParserDelegate20atomPatternCharacterEt
__ZN3AJ4Yarr14RegexGenerator24matchCharacterClassRangeENS_12X86Registers10RegisterIDERNS_22AbstractMacroAssemblerINS_12X86Asse
__ZN3ATF6VectorIN3AJ22AbstractMacroAssemblerINS1_12X86AssemblerEE4JumpELm16EED1Ev
_cti_op_nstricteq
__ZN3AJ27ctiPatchCallByReturnAddressEPNS_9CodeBlockENS_16ReturnAddressPtrENS_21MacroAssemblerCodePtrE
__ZNK3AJ8AJString9toBooleanEPNS_9AJExcStateE
_cti_op_is_string
__ZN3AJL16mathProtoFuncPowEPNS_9AJExcStateEPNS_8AJObjectENS_7AJValueERKNS_7ArgListE
_cti_op_get_by_id_proto_list_full
_cti_op_put_by_id_transition_realloc
_cti_timeout_check
__ZN3AJ14TimeoutChecker10didTimeOutEPNS_9AJExcStateE
_cti_op_mul
__ZN3AJ4Yarr23RegexPatternConstructor25atomBuiltInCharacterClassENS0_23BuiltInCharacterClassIDEb
_cti_op_convert_this
__ZNK3AJ8AJString12toThisObjectEPNS_9AJExcStateE
__ZN3AJ12StringObjectC1EN3ATF17NonNullPassRefPtrINS_9StructureEEEPNS_8AJStringE
__ZN3AJL22stringProtoFuncReplaceEPNS_9AJExcStateEPNS_8AJObjectENS_7AJValueERKNS_7ArgListE
__ZNK3AJ7AJValue12toThisObjectEPNS_9AJExcStateE
__ZNK3AJ8AJObject8toStringEPNS_9AJExcStateE
__ZNK3AJ8AJObject11toPrimitiveEPNS_9AJExcStateENS_22PreferredPrimitiveTypeE
__ZNK3AJ8AJObject12defaultValueEPNS_9AJExcStateENS_22PreferredPrimitiveTypeE
__ZN3AJL23stringProtoFuncToStringEPNS_9AJExcStateEPNS_8AJObjectENS_7AJValueERKNS_7ArgListE
__ZNK3AJ12StringObject9classInfoEv
__ZN7Aphid10StringImpl4costEv
__ZN3AJ6AJCell11getCallDataERNS_8CallDataE
__ZN3AJ24charCodeAtThunkGeneratorEPNS_12AJGlobalDataEPNS_14ExecutablePoolE
__ZN3AJL14stringCharLoadERNS_19SpecializedThunkJITE
_cti_op_get_by_val_string
_AJValueToBoolean
_AJValueUnprotect
_AJGlobalContextRelease
__ZN3AJ4Heap17collectAllGarbageEv
__ZN3AJ4Heap9markRootsEv
__ZN3AJ4Heap30markStackObjectsConservativelyERNS_9MarkStackE
__ZN3AJ4Heap31markCurrentThreadConservativelyERNS_9MarkStackE
__ZN3AJ4Heap39markCurrentThreadConservativelyInternalERNS_9MarkStackE
__ZN3AJ4Heap18markConservativelyERNS_9MarkStackEPvS3_
__ZN3AJ9MarkStack12markChildrenEPNS_6AJCellE
__ZN3AJ8AJObject12markChildrenERNS_9MarkStackE
__ZN3AJ14AJGlobalObject12markChildrenERNS_9MarkStackE
__ZN3AJL12markIfNeededERNS_9MarkStackENS_7AJValueE
__ZN3AJ10AJFunction12markChildrenERNS_9MarkStackE
__ZN3AJ18FunctionExecutable13markAggregateERNS_9MarkStackE
__ZN3AJ12JSActivation12markChildrenERNS_9MarkStackE
__ZN3AJ15JSWrapperObject12markChildrenERNS_9MarkStackE
__ZN3AJ7AJArray12markChildrenERNS_9MarkStackE
__ZN3AJ18GlobalEvalFunction12markChildrenERNS_9MarkStackE
__ZN3AJ9CodeBlock13markAggregateERNS_9MarkStackE
__ZN3AJ16AJCallbackObjectINS_8AJObjectEE12markChildrenERNS_9MarkStackE
__ZN3AJ19AJStaticScopeObject12markChildrenERNS_9MarkStackE
__ZN3AJ9MarkStack12releaseStackEPvm
__ZN3AJ4Heap20markProtectedObjectsERNS_9MarkStackE
__ZN3AJ12SmallStrings12markChildrenERNS_9MarkStackE
__ZN3AJ9MarkStack7compactEv
__ZN3AJ4Heap5sweepEv
__ZN3AJ12DateInstanceD1Ev
__ZN3AJ9CodeBlock13unlinkCallersEv
__ZN3AJ8AJObjectD1Ev
__ZN3AJ12JSActivationD1Ev
__ZN3AJ12JSActivationD2Ev
__ZN3AJ12StringObjectD1Ev
__ZN3AJ4Heap12resizeBlocksEv
__ZN3ATF6VectorIPN3AJ14ExpressionNodeELm8EE14expandCapacityEm
__ZN3ATF6VectorIPNS0_IN3AJ10RegisterIDELm32EEELm32EE14expandCapacityEmPKS4_
__ZN3ATF6VectorIPNS0_IN3AJ10RegisterIDELm32EEELm32EE15reserveCapacityEm
__ZN3AJ8VoidNode12emitBytecodeERNS_17BytecodeGeneratorEPNS_10RegisterIDE
__ZN3AJ4Yarr6ParserINS0_23RegexPatternConstructorEE15parseQuantifierEbjj
__ZN3AJ4Yarr14RegexGenerator19TermGenerationState15jumpToBacktrackERNS_22AbstractMacroAssemblerINS_12X86AssemblerEE8JumpListEP
__ZN3AJ4Yarr14wordcharCreateEv
__ZN3AJ4Yarr12digitsCreateEv
__ZN3AJ4Yarr14RegexGenerator30generatePatternCharacterGreedyERNS1_19TermGenerationStateE
__ZN3ATF6VectorINS_6RefPtrIN3AJ10RegisterIDEEELm16EE14expandCapacityEm
___initializeScavenger_block_invoke_1
__Z22TCMalloc_SystemReleasePvm
__Z21TCMalloc_SystemCommitPvm
__ZNK3AJ7AJValue20toThisObjectSlowCaseEPNS_9AJExcStateE
__ZN3AJL19mathProtoFuncRandomEPNS_9AJExcStateEPNS_8AJObjectENS_7AJValueERKNS_7ArgListE
__ZNK3AJ7AJValue19synthesizePrototypeEPNS_9AJExcStateE
__ZN3AJL23numberProtoFuncToStringEPNS_9AJExcStateEPNS_8AJObjectENS_7AJValueERKNS_7ArgListE
__ZN3AJ17NumberConstructor18getOwnPropertySlotEPNS_9AJExcStateERKNS_10IdentifierERNS_12PropertySlotE
__ZN3AJL25numberConstructorMaxValueEPNS_9AJExcStateENS_7AJValueERKNS_10IdentifierE
__ZN3AJ18sqrtThunkGeneratorEPNS_12AJGlobalDataEPNS_14ExecutablePoolE
__ZN3AJ3JIT26privateCompileGetByIdProtoEPNS_17StructureStubInfoEPNS_9StructureES4_RKNS_10IdentifierERKNS_12PropertySlotEmNS_16
__ZN3AJ8AJObject3putEPNS_9AJExcStateEjNS_7AJValueE
__ZN3AJ10Identifier4fromEPNS_9AJExcStateEj
__ZN3AJ4Yarr13newlineCreateEv
__ZN3AJ4Yarr14RegexGenerator29generateAssertionWordBoundaryERNS1_19TermGenerationStateE
__ZN3AJ4Yarr14RegexGenerator22matchAssertionWordcharERNS1_19TermGenerationStateERNS_22AbstractMacroAssemblerINS_12X86Assembler
__ZN3AJL26stringProtoFuncToLowerCaseEPNS_9AJExcStateEPNS_8AJObjectENS_7AJValueERKNS_7ArgListE
__ZN3AJL22stringProtoFuncIndexOfEPNS_9AJExcStateEPNS_8AJObjectENS_7AJValueERKNS_7ArgListE
__ZNK3AJ7UString4findERKS0_j
__ZN3AJ17RegExpConstructor18getOwnPropertySlotEPNS_9AJExcStateERKNS_10IdentifierERNS_12PropertySlotE
__ZN3AJ17RegExpConstructor16getConstructDataERNS_13ConstructDataE
__ZN3AJL30constructWithRegExpConstructorEPNS_9AJExcStateEPNS_8AJObjectERKNS_7ArgListE
__ZN3AJ15constructRegExpEPNS_9AJExcStateERKNS_7ArgListE
__ZNK3AJ6AJCell9classInfoEv
__ZN3AJL19regExpProtoFuncExecEPNS_9AJExcStateEPNS_8AJObjectENS_7AJValueERKNS_7ArgListE
__ZN3AJ12RegExpObject4execEPNS_9AJExcStateERKNS_7ArgListE
__ZNK3AJ17RegExpConstructor14arrayOfMatchesEPNS_9AJExcStateE
__ZN3AJ18RegExpMatchesArrayC2EPNS_9AJExcStateEPNS_24RegExpConstructorPrivateE
__ZN3AJ7AJArrayC2EN3ATF17NonNullPassRefPtrINS_9StructureEEEj
__ZN3AJ7AJArray15setSubclassDataEPv
__ZN3AJL24regExpConstructorDollar1EPNS_9AJExcStateENS_7AJValueERKNS_10IdentifierE
__ZNK3AJ17RegExpConstructor10getBackrefEPNS_9AJExcStateEj
__ZN3AJ20globalFuncParseFloatEPNS_9AJExcStateEPNS_8AJObjectENS_7AJValueERKNS_7ArgListE
_cti_op_put_by_id_generic
__ZN3AJ17BytecodeGenerator29uncheckedRegisterForArgumentsEv
__ZN3AJ3JIT22emit_op_init_argumentsEPNS_11InstructionE
__ZN3AJ3JIT24emit_op_create_argumentsEPNS_11InstructionE
__ZN3AJ20MacroAssemblerX86_6413branchTestPtrENS_23MacroAssemblerX86Common9ConditionENS_22AbstractMacroAssemblerINS_12X86Assemb
_cti_op_load_varargs
__ZN3AJ3JIT19patchPutByIdReplaceEPNS_9CodeBlockEPNS_17StructureStubInfoEPNS_9StructureEmNS_16ReturnAddressPtrE
__ZN3AJ21ThrowableBinaryOpNode12emitBytecodeERNS_17BytecodeGeneratorEPNS_10RegisterIDE
__ZN3AJL20stringProtoFuncSplitEPNS_9AJExcStateEPNS_8AJObjectENS_7AJValueERKNS_7ArgListE
_cti_op_in
__ZN3AJL19arrayProtoFuncShiftEPNS_9AJExcStateEPNS_8AJObjectENS_7AJValueERKNS_7ArgListE
__ZNK3AJ7AJValue8toUInt32EPNS_9AJExcStateE
__ZN3AJ7AJArray18getOwnPropertySlotEPNS_9AJExcStateEjRNS_12PropertySlotE
__ZN3AJ7AJArray14deletePropertyEPNS_9AJExcStateEj
__ZN3AJ7AJArray3putEPNS_9AJExcStateERKNS_10IdentifierENS_7AJValueERNS_15PutPropertySlotE
__ZN3AJ7AJArray9setLengthEj
__ZN3AJ23CallFunctionCallDotNode12emitBytecodeERNS_17BytecodeGeneratorEPNS_10RegisterIDE
__ZN3AJ17BytecodeGenerator25emitJumpIfNotFunctionCallEPNS_10RegisterIDEPNS_5LabelE
_cti_op_create_arguments
__ZN3AJ9Arguments18getOwnPropertySlotEPNS_9AJExcStateERKNS_10IdentifierERNS_12PropertySlotE
__ZN3AJ3JIT30privateCompileGetByIdProtoListEPNS_17StructureStubInfoEPNS_30PolymorphicAccessStructureListEiPNS_9StructureES6_RK
__ZN3AJ9ForInNode12emitBytecodeERNS_17BytecodeGeneratorEPNS_10RegisterIDE
__ZN3AJ17BytecodeGenerator20emitGetPropertyNamesEPNS_10RegisterIDES2_S2_S2_PNS_5LabelE
__ZN3ATF6VectorIN3AJ12ForInContextELm0EE15reserveCapacityEm
__ZN3AJ17BytecodeGenerator20emitNextPropertyNameEPNS_10RegisterIDES2_S2_S2_S2_PNS_5LabelE
__ZN3AJ3JIT18emit_op_get_pnamesEPNS_11InstructionE
__ZN3AJ3JIT20emit_op_get_by_pnameEPNS_11InstructionE
__ZN3AJ3JIT22compileGetDirectOffsetENS_12X86Registers10RegisterIDES2_S2_S2_S2_
__ZN3AJ3JIT18emit_op_next_pnameEPNS_11InstructionE
__ZN3AJ3JIT24emitSlow_op_get_by_pnameEPNS_11InstructionERPNS_13SlowCaseEntryE
_cti_op_get_pnames
__ZN3AJ22AJPropertyNameIterator6createEPNS_9AJExcStateEPNS_8AJObjectE
__ZN3AJ8AJObject16getPropertyNamesEPNS_9AJExcStateERNS_17PropertyNameArrayENS_15EnumerationModeE
__ZN3AJ8AJObject19getOwnPropertyNamesEPNS_9AJExcStateERNS_17PropertyNameArrayENS_15EnumerationModeE
__ZN3AJ9Structure16getPropertyNamesERNS_17PropertyNameArrayENS_15EnumerationModeE
__ZN3AJL29objectProtoFuncHasOwnPropertyEPNS_9AJExcStateEPNS_8AJObjectENS_7AJValueERKNS_7ArgListE
__ZNK3AJ8AJObject14hasOwnPropertyEPNS_9AJExcStateERKNS_10IdentifierE
__ZN3AJ8AJObject18getOwnPropertySlotEPNS_9AJExcStateERKNS_10IdentifierERNS_12PropertySlotE
_cti_op_typeof
__ZN3AJ20jsTypeStringForValueEPNS_9AJExcStateENS_7AJValueE
__ZN3AJ9Structure27despecifyFunctionTransitionEPS0_RKNS_10IdentifierE
_cti_has_property
__ZN3AJ3JIT26emit_op_tear_off_argumentsEPNS_11InstructionE
__ZN3AJL19arrayProtoFuncSliceEPNS_9AJExcStateEPNS_8AJObjectENS_7AJValueERKNS_7ArgListE
__ZN3AJL11getPropertyEPNS_9AJExcStateEPNS_8AJObjectEj
__ZN3AJ9Arguments18getOwnPropertySlotEPNS_9AJExcStateEjRNS_12PropertySlotE
_cti_op_tear_off_arguments
__ZN3AJ10AJFunction19getOwnPropertyNamesEPNS_9AJExcStateERNS_17PropertyNameArrayENS_15EnumerationModeE
__ZNK3AJ10AJFunction9classInfoEv
__ZN3AJ17DeleteBracketNode12emitBytecodeERNS_17BytecodeGeneratorEPNS_10RegisterIDE
__ZN3AJ17BytecodeGenerator15emitDeleteByValEPNS_10RegisterIDES2_S2_
__ZN3AJ8AJObject18getOwnPropertySlotEPNS_9AJExcStateEjRNS_12PropertySlotE
_cti_op_del_by_val
__ZN3AJ8AJObject14deletePropertyEPNS_9AJExcStateERKNS_10IdentifierE
_cti_op_is_boolean
__ZN3AJ10SwitchNode12emitBytecodeERNS_17BytecodeGeneratorEPNS_10RegisterIDE
__ZN3AJ13CaseBlockNode20emitBytecodeForBlockERNS_17BytecodeGeneratorEPNS_10RegisterIDES4_
__ZN3AJ13CaseBlockNode18tryOptimizedSwitchERN3ATF6VectorIPNS_14ExpressionNodeELm8EEERiS7_
__ZN3AJL17processClauseListEPNS_14ClauseListNodeERN3ATF6VectorIPNS_14ExpressionNodeELm8EEERNS_10SwitchKindERbRiSB_
__ZN3AJ17BytecodeGenerator11beginSwitchEPNS_10RegisterIDENS_10SwitchInfo10SwitchTypeE
__ZN3ATF6VectorIN3AJ10SwitchInfoELm0EE14expandCapacityEm
__ZN3AJ17BytecodeGenerator9endSwitchEjPN3ATF6RefPtrINS_5LabelEEEPPNS_14ExpressionNodeEPS3_ii
__ZN3ATF6VectorIN3AJ15SimpleJumpTableELm0EE14expandCapacityEm
__ZNK3AJ5Label4bindEii
__ZN3AJ3JIT18emit_op_switch_immEPNS_11InstructionE
__ZN3ATF6VectorIN3AJ12SwitchRecordELm0EE14expandCapacityEm
__ZN3ATF6VectorIN3AJ17CodeLocationLabelELm0EE4growEm
_cti_op_switch_imm
__ZN3AJ4Yarr23RegexPatternConstructor8copyTermERNS0_11PatternTermE
__ZL14compileBracketiPiPPhPPKtS3_P9ErrorCodeiS_S_R11CompileData
__ZL32branchFindFirstAssertedCharacterPKhb
__ZL20branchNeedsLineStartPKhjj
__ZL17bracketIsAnchoredPKh
_cti_op_get_by_id_array_fail
__ZN3AJ17PropertyNameArray3addEPN7Aphid10StringImplE
__ZN3ATF7HashSetIPN7Aphid10StringImplENS_7PtrHashIS3_EENS_10HashTraitsIS3_EEE3addERKS3_
__ZN3ATF9HashTableIPN7Aphid10StringImplES3_NS_17IdentityExtractorIS3_EENS_7PtrHashIS3_EENS_10HashTraitsIS3_EES9_E6rehashEi
__ZN3ATF6VectorIN3AJ10IdentifierELm20EE14expandCapacityEm
__ZN3AJL28numberConstructorPosInfinityEPNS_9AJExcStateENS_7AJValueERKNS_10IdentifierE
__ZN3AJL28numberConstructorNegInfinityEPNS_9AJExcStateENS_7AJValueERKNS_10IdentifierE
__ZN3AJ4Heap5resetEv
__ZN3AJ9Arguments12markChildrenERNS_9MarkStackE
__ZN3AJ22AJPropertyNameIterator12markChildrenERNS_9MarkStackE
__ZN3AJ3JIT10unlinkCallEPNS_12CallLinkInfoE
__ZN3AJ9LabelNode12emitBytecodeERNS_17BytecodeGeneratorEPNS_10RegisterIDE
__ZN3AJ12RegExpObjectD1Ev
__ZN3AJ18RegExpMatchesArrayD1Ev
__ZNK3AJ7AJArray12subclassDataEv
__ZN3AJ15ObjectPrototype18getOwnPropertySlotEPNS_9AJExcStateEjRNS_12PropertySlotE
__ZN3AJ22AJPropertyNameIteratorD1Ev
__ZN3AJ22AJPropertyNameIteratorD2Ev
__ZNK3AJ7AJArray9classInfoEv
__ZN3AJ7AJArray15copyToRegistersEPNS_9AJExcStateEPNS_8RegisterEj
__ZN3AJ9ArgumentsD1Ev
__ZN3AJ9ArgumentsD2Ev
__ZN3AJ7UString4fromEd
__ZN3ATF32doubleToStringInAJFormatEdPcPj
__ZN3ATF4dtoaEPcdiPiS1_PS0_
__ZN3AJ10Identifier11addSlowCaseEPNS_12AJGlobalDataEPN7Aphid10StringImplE
__ZN3ATF6VectorIPN3AJ9StructureELm8EE14expandCapacityEm
_cti_op_resolve_base
__ZN3AJ12JSActivation18getOwnPropertySlotEPNS_9AJExcStateERKNS_10IdentifierERNS_12PropertySlotE
__ZN3AJ20charAtThunkGeneratorEPNS_12AJGlobalDataEPNS_14ExecutablePoolE
__ZN3AJL21stringProtoFuncCharAtEPNS_9AJExcStateEPNS_8AJObjectENS_7AJValueERKNS_7ArgListE
__ZN3AJ17PrefixBracketNode12emitBytecodeERNS_17BytecodeGeneratorEPNS_10RegisterIDE
__ZN3AJ14PostfixDotNode12emitBytecodeERNS_17BytecodeGeneratorEPNS_10RegisterIDE
__ZN3AJ17BytecodeGenerator11emitPostIncEPNS_10RegisterIDES2_
__ZN3AJ3JIT16emit_op_post_incEPNS_11InstructionE
__ZN3AJ3JIT20emitSlow_op_post_incEPNS_11InstructionERPNS_13SlowCaseEntryE
__ZN3AJ18PostfixBracketNode12emitBytecodeERNS_17BytecodeGeneratorEPNS_10RegisterIDE
__ZN3AJ17BytecodeGenerator18pushFinallyContextEPNS_5LabelEPNS_10RegisterIDE
__ZN3AJ17BytecodeGenerator17popFinallyContextEv
__ZN3AJ17BytecodeGenerator19highestUsedRegisterEv
__ZN3AJ17BytecodeGenerator18emitJumpSubroutineEPNS_10RegisterIDEPNS_5LabelE
__ZN3AJ17BytecodeGenerator20emitSubroutineReturnEPNS_10RegisterIDE
__ZN3AJ3JIT11emit_op_jsrEPNS_11InstructionE
__ZN3ATF6VectorIN3AJ3JIT7JSRInfoELm0EE14expandCapacityEm
__ZN3AJ3JIT13emit_op_throwEPNS_11InstructionE
__ZN3AJ3JIT12emit_op_sretEPNS_11InstructionE
__ZN3AJ21ReadModifyBracketNode12emitBytecodeERNS_17BytecodeGeneratorEPNS_10RegisterIDE
_cti_op_lesseq
__ZN3AJL20stringProtoFuncMatchEPNS_9AJExcStateEPNS_8AJObjectENS_7AJValueERKNS_7ArgListE
__ZN3AJ18RegExpMatchesArray18getOwnPropertySlotEPNS_9AJExcStateEjRNS_12PropertySlotE
__ZN3AJ18RegExpMatchesArray17fillArrayInstanceEPNS_9AJExcStateE
__ZN3AJ14jsReplaceRangeEPNS_9AJExcStateERKNS_7UStringEiiS4_
__ZN3AJ18RegExpMatchesArray18getOwnPropertySlotEPNS_9AJExcStateERKNS_10IdentifierERNS_12PropertySlotE
__ZNK3AJ8AJObject11hasPropertyEPNS_9AJExcStateEj
__ZN3AJL24stringProtoFuncSubstringEPNS_9AJExcStateEPNS_8AJObjectENS_7AJValueERKNS_7ArgListE
_cti_op_create_arguments_no_params
__ZN3AJL21arrayProtoFuncUnShiftEPNS_9AJExcStateEPNS_8AJObjectENS_7AJValueERKNS_7ArgListE
_cti_op_pre_dec
_cti_op_is_undefined
__ZN3AJ13DeleteDotNode12emitBytecodeERNS_17BytecodeGeneratorEPNS_10RegisterIDE
__ZN3AJ17BytecodeGenerator14emitDeleteByIdEPNS_10RegisterIDES2_RKNS_10IdentifierE
__ZN3AJ23FunctionCallBracketNode12emitBytecodeERNS_17BytecodeGeneratorEPNS_10RegisterIDE
__ZN3AJ3JIT17emit_op_del_by_idEPNS_11InstructionE
_cti_op_del_by_id
__ZN3ATF37parseDateFromNullTerminatedCharactersEPKc
__ZN3ATFL37parseDateFromNullTerminatedCharactersEPKcRbRi
_cti_op_get_by_id_proto_fail
__ZN3AJ17constructFunctionEPNS_9AJExcStateERKNS_7ArgListERKNS_10IdentifierERKNS_7UStringEi
__ZN3ATF6VectorItLm64EE15reserveCapacityEm
__ZN3AJ20EvalFunctionCallNode12emitBytecodeERNS_17BytecodeGeneratorEPNS_10RegisterIDE
__ZN3AJ17BytecodeGenerator12emitCallEvalEPNS_10RegisterIDES2_S2_PNS_13ArgumentsNodeEjjj
__ZN3AJ3JIT17emit_op_call_evalEPNS_11InstructionE
__ZN3AJ3JIT21emitSlow_op_call_evalEPNS_11InstructionERPNS_13SlowCaseEntryE
_cti_op_resolve
_cti_op_call_eval
__ZN3AJ11Interpreter8callEvalEPNS_9AJExcStateEPNS_12RegisterFileEPNS_8RegisterEiiRNS_7AJValueE
__ZN3AJ13LiteralParser5Lexer3lexERNS1_18LiteralParserTokenE
__ZN3AJ13LiteralParser5parseENS0_11ParserStateE
__ZN3AJ14EvalExecutable7compileEPNS_9AJExcStateEPNS_14ScopeChainNodeE
__ZN3AJ6Parser5parseINS_8EvalNodeEEEN3ATF10PassRefPtrIT_EEPNS_12AJGlobalDataEPNS_8DebuggerEPNS_9AJExcStateERKNS_10SourceCodeEPi
__ZN3AJ8EvalNode6createEPNS_12AJGlobalDataEPNS_14SourceElementsEPN3ATF6VectorISt4pairIPKNS_10IdentifierEjELm0EEEPNS6_IPNS_16Fu
__ZNK3AJ10ScopeChain10localDepthEv
__ZNK3AJ12JSActivation9classInfoEv
__ZN3AJ17BytecodeGeneratorC1EPNS_8EvalNodeEPKNS_8DebuggerERKNS_10ScopeChainEPN3ATF7HashMapINS9_6RefPtrIN7Aphid10StringImplEE
__ZN3AJ17BytecodeGeneratorC2EPNS_8EvalNodeEPKNS_8DebuggerERKNS_10ScopeChainEPN3ATF7HashMapINS9_6RefPtrIN7Aphid10StringImplEE
__ZN3AJ8EvalNode12emitBytecodeERNS_17BytecodeGeneratorEPNS_10RegisterIDE
__ZThn16_N3AJ8EvalNodeD0Ev
__ZN3AJ8EvalNodeD0Ev
__ZN3ATF9HashTableINS_6RefPtrIN7Aphid10StringImplEEESt4pairIS4_NS1_IN3AJ14EvalExecutableEEEENS_18PairFirstExtractorIS9_EENS2
__ZN3AJ9AJExcState9thisValueEv
__ZN3AJ11Interpreter7executeEPNS_14EvalExecutableEPNS_9AJExcStateEPNS_8AJObjectEiPNS_14ScopeChainNodeEPNS_7AJValueE
__ZN3AJ14EvalExecutable15generateJITCodeEPNS_9AJExcStateEPNS_14ScopeChainNodeE
__ZN3AJ9ThrowNode12emitBytecodeERNS_17BytecodeGeneratorEPNS_10RegisterIDE
_cti_op_throw
__ZN3AJ9CodeBlock34reparseForExceptionInfoIfNecessaryEPNS_9AJExcStateE
__ZN3AJ18FunctionExecutable20reparseExceptionInfoEPNS_12AJGlobalDataEPNS_14ScopeChainNodeEPNS_9CodeBlockE
__ZN3AJ11Interpreter14throwExceptionERPNS_9AJExcStateERNS_7AJValueEjb
__ZN3AJ9CodeBlock24handlerForBytecodeOffsetEj
__ZN3AJ11Interpreter15unwindCallFrameERPNS_9AJExcStateENS_7AJValueERjRPNS_9CodeBlockE
__ZN3AJ9CodeBlock36hasGlobalResolveInfoAtBytecodeOffsetEj
_cti_op_push_new_scope
__ZN3ATF7HashMapINS_6RefPtrIN7Aphid10StringImplEEEN3AJ16SymbolTableEntryENS5_17IdentifierRepHashENS_10HashTraitsIS4_EENS5_26
__ZN3AJ19AJStaticScopeObject18getOwnPropertySlotEPNS_9AJExcStateERKNS_10IdentifierERNS_12PropertySlotE
__ZN3AJ12JSActivation3putEPNS_9AJExcStateERKNS_10IdentifierENS_7AJValueERNS_15PutPropertySlotE
_cti_op_pop_scope
_cti_op_is_number
__ZN3AJL20arrayProtoFuncConcatEPNS_9AJExcStateEPNS_8AJObjectENS_7AJValueERKNS_7ArgListE
_cti_op_stricteq
__ZN3AJL20arrayProtoFuncSpliceEPNS_9AJExcStateEPNS_8AJObjectENS_7AJValueERKNS_7ArgListE
__ZNK3AJ11Interpreter18retrieveLastCallerEPNS_9AJExcStateERiRlRNS_7UStringERNS_7AJValueE
__ZN3AJ9CodeBlock27lineNumberForBytecodeOffsetEPNS_9AJExcStateEj
__ZN3AJ8RopeImpl20destructNonRecursiveEv
__ZN3AJ8RopeImpl23derefFibersNonRecursiveERN3ATF6VectorIPS0_Lm32EEE
__ZN3AJL17arrayProtoFuncPopEPNS_9AJExcStateEPNS_8AJObjectENS_7AJValueERKNS_7ArgListE
__ZN3AJ7AJArray3popEv
__ZN7Aphid6String6numberEd
__ZN3AJ10Identifier5equalEPKN7Aphid10StringImplEPKc
__ZNK3AJ9Arguments9classInfoEv
__ZN3AJ9Arguments15copyToRegistersEPNS_9AJExcStateEPNS_8RegisterEj
__ZN3AJ14InstanceOfNode12emitBytecodeERNS_17BytecodeGeneratorEPNS_10RegisterIDE
__ZN3AJ17BytecodeGenerator14emitInstanceOfEPNS_10RegisterIDES2_S2_S2_
__ZN3AJ3JIT18emit_op_instanceofEPNS_11InstructionE
__ZN3AJ3JIT22emitSlow_op_instanceofEPNS_11InstructionERPNS_13SlowCaseEntryE
__ZN3AJ17BytecodeGenerator11emitPostDecEPNS_10RegisterIDES2_
__ZN3AJ3JIT16emit_op_post_decEPNS_11InstructionE
__ZN3AJ3JIT20emitSlow_op_post_decEPNS_11InstructionERPNS_13SlowCaseEntryE
_cti_op_less
__ZN3AJ13PrefixDotNode12emitBytecodeERNS_17BytecodeGeneratorEPNS_10RegisterIDE
_cti_op_call_NotAJFunction
__ZN3AJ17StringConstructor11getCallDataERNS_8CallDataE
__ZN3AJL21callStringConstructorEPNS_9AJExcStateEPNS_8AJObjectENS_7AJValueERKNS_7ArgListE
__ZNK3AJ8AJString8toNumberEPNS_9AJExcStateE
__ZNK3AJ7UString8toDoubleEv
__ZN3AJ18BooleanConstructor11getCallDataERNS_8CallDataE
__ZN3AJL22callBooleanConstructorEPNS_9AJExcStateEPNS_8AJObjectENS_7AJValueERKNS_7ArgListE
__ZN3AJ7AJArray19getOwnPropertyNamesEPNS_9AJExcStateERNS_17PropertyNameArrayENS_15EnumerationModeE
__ZN3AJ9AJExcState10arrayTableEPS0_
__ZN3AJ17DeleteResolveNode12emitBytecodeERNS_17BytecodeGeneratorEPNS_10RegisterIDE
__ZN3AJL18arrayProtoFuncSortEPNS_9AJExcStateEPNS_8AJObjectENS_7AJValueERKNS_7ArgListE
__ZN3AJ7AJArray4sortEPNS_9AJExcStateENS_7AJValueENS_8CallTypeERKNS_8CallDataE
__ZN3ATF6VectorIN3AJ26AVLTreeNodeForArrayCompareELm0EE14expandCapacityEm
__ZN3AJ11Interpreter20prepareForRepeatCallEPNS_18FunctionExecutableEPNS_9AJExcStateEPNS_10AJFunctionEiPNS_14ScopeChainNodeEPNS_
__ZN3ATF7AVLTreeIN3AJ32AVLTreeAbstractorForArrayCompareELj44ENS_18AVLTreeDefaultBSetILj44EEEE6insertEi
__ZN3AJ11Interpreter7executeERNS_16CallFrameClosureEPNS_7AJValueE
__ZN3ATF7AVLTreeIN3AJ32AVLTreeAbstractorForArrayCompareELj44ENS_18AVLTreeDefaultBSetILj44EEEE7balanceEi
__ZN3AJ11Interpreter13endRepeatCallERNS_16CallFrameClosureE
__ZN3AJL16mathProtoFuncExpEPNS_9AJExcStateEPNS_8AJObjectENS_7AJValueERKNS_7ArgListE
__ZN3AJL17mathProtoFuncATanEPNS_9AJExcStateEPNS_8AJObjectENS_7AJValueERKNS_7ArgListE
__ZL17makeLeftShiftNodePN3AJ12AJGlobalDataEPNS_14ExpressionNodeES3_b
__ZN3AJ3JIT14emit_op_lshiftEPNS_11InstructionE
__ZN3AJ3JIT14emit_op_bitandEPNS_11InstructionE
__ZN3AJ3JIT14emit_op_rshiftEPNS_11InstructionE
__ZN3AJ3JIT18emitSlow_op_lshiftEPNS_11InstructionERPNS_13SlowCaseEntryE
__ZN3AJ3JIT18emitSlow_op_bitandEPNS_11InstructionERPNS_13SlowCaseEntryE
__ZN3AJ3JIT18emitSlow_op_rshiftEPNS_11InstructionERPNS_13SlowCaseEntryE
__ZN3AJ32jsSpliceSubstringsWithSeparatorsEPNS_9AJExcStateEPNS_8AJStringERKNS_7UStringEPKNS_11StringRangeEiPS5_i
__ZN3AJL26stringProtoFuncLastIndexOfEPNS_9AJExcStateEPNS_8AJObjectENS_7AJValueERKNS_7ArgListE
__ZNK3AJ7AJValue20toIntegerPreserveNaNEPNS_9AJExcStateE
__ZNK3AJ7UString5rfindERKS0_j
__ZN3ATF6VectorIiLm0EE15reserveCapacityEm
__ZN3ATF6VectorINS_6RefPtrIN3AJ5LabelEEELm8EE15reserveCapacityEm
__ZN3ATF6VectorISt4pairIiiELm8EE14expandCapacityEm
__ZN3AJ11DoWhileNode12emitBytecodeERNS_17BytecodeGeneratorEPNS_10RegisterIDE
__ZN3AJ3JIT19emit_op_switch_charEPNS_11InstructionE
_cti_op_switch_char
__ZN3AJL21stringProtoFuncSearchEPNS_9AJExcStateEPNS_8AJObjectENS_7AJValueERKNS_7ArgListE
__ZN3ATF10RefCountedIN3AJ6RegExpEE5derefEv
__ZN3AJ14AJGlobalObjectD2Ev
__ZN3AJ12RegisterFile17clearGlobalObjectEPNS_14AJGlobalObjectE
__ZN3AJ17FunctionPrototypeD1Ev
__ZN3AJ15ObjectPrototypeD1Ev
__ZN3AJ14ArrayPrototypeD1Ev
__ZN3AJ15StringPrototypeD1Ev
__ZN3AJ16BooleanPrototypeD1Ev
__ZN3AJ15NumberPrototypeD1Ev
__ZN3AJ13DatePrototypeD1Ev
__ZN3AJ15RegExpPrototypeD1Ev
__ZN3AJ14ErrorPrototypeD1Ev
__ZN3AJ20NativeErrorPrototypeD1Ev
__ZN3AJ17ObjectConstructorD1Ev
__ZN3AJ19FunctionConstructorD1Ev
__ZN3AJ16ArrayConstructorD1Ev
__ZN3AJ17StringConstructorD1Ev
__ZN3AJ18BooleanConstructorD1Ev
__ZN3AJ17NumberConstructorD1Ev
__ZN3AJ15DateConstructorD1Ev
__ZN3AJ17RegExpConstructorD1Ev
__ZN3AJ16ErrorConstructorD1Ev
__ZN3AJ22NativeErrorConstructorD1Ev
__ZN3AJ10MathObjectD1Ev
__ZN3AJ10JSONObjectD1Ev
__ZN3AJ18GlobalEvalFunctionD1Ev
__ZN3AJ19AJStaticScopeObjectD1Ev
__ZN3AJ19AJStaticScopeObjectD2Ev
__ZN3ATF6VectorIPvLm0EE14expandCapacityEmPKS1_
__ZN3ATF6VectorIPvLm0EE15reserveCapacityEm
__ZN3AJ16AJCallbackObjectINS_8AJObjectEED1Ev
__ZL25clearReferenceToPrototypeP13OpaqueAJValue
_AJObjectGetPrivate
__ZNK3AJ16AJCallbackObjectINS_8AJObjectEE9classInfoEv
__ZN3AJ28globalFuncEncodeURIComponentEPNS_9AJExcStateEPNS_8AJObjectENS_7AJValueERKNS_7ArgListE
__ZN3AJL6encodeEPNS_9AJExcStateERKNS_7ArgListEPKc
__ZN3ATF6VectorItLm64EE9tryAppendItEEbPKT_m
__ZN3ATF6VectorItLm64EE18tryReserveCapacityEm
__ZN3AJ28globalFuncDecodeURIComponentEPNS_9AJExcStateEPNS_8AJObjectENS_7AJValueERKNS_7ArgListE
__ZN3AJL6decodeEPNS_9AJExcStateERKNS_7ArgListEPKcb
__ZN3ATF7Unicode18UTF8SequenceLengthEc
__ZN3ATF7Unicode18decodeUTF8SequenceEPKc
__ZN3AJ18EmptyStatementNode12emitBytecodeERNS_17BytecodeGeneratorEPNS_10RegisterIDE
__ZN3AJltERKNS_7UStringES2_
__ZN3ATF6VectorItLm0EE14expandCapacityEmPKt
__ZN3ATF6VectorItLm0EE15reserveCapacityEm
__ZN3AJ18RegExpMatchesArray3putEPNS_9AJExcStateEjNS_7AJValueE
__ZN3AJ18RegExpMatchesArray14deletePropertyEPNS_9AJExcStateEj
__ZN3AJ18RegExpMatchesArray3putEPNS_9AJExcStateERKNS_10IdentifierENS_7AJValueERNS_15PutPropertySlotE
__ZN3AJ14EvalExecutableD0Ev
__ZN3AJ13EvalCodeBlockD0Ev
__ZN3AJ3JIT30emit_op_resolve_global_dynamicEPNS_11InstructionE
__ZN3AJ3JIT34emitSlow_op_resolve_global_dynamicEPNS_11InstructionERPNS_13SlowCaseEntryE
__ZN3AJ19FunctionConstructor16getConstructDataERNS_13ConstructDataE
__ZN3AJL32constructWithFunctionConstructorEPNS_9AJExcStateEPNS_8AJObjectERKNS_7ArgListE
__ZN3AJ17constructFunctionEPNS_9AJExcStateERKNS_7ArgListE
__ZN3AJ3JIT18emit_op_jmp_scopesEPNS_11InstructionE
__ZN3AJ8WithNode12emitBytecodeERNS_17BytecodeGeneratorEPNS_10RegisterIDE
__ZN3AJ17BytecodeGenerator13emitPushScopeEPNS_10RegisterIDE
__ZN3AJ3JIT18emit_op_push_scopeEPNS_11InstructionE
_cti_op_push_scope
_cti_op_jmp_scopes
__ZN3ATF6VectorIN3AJ14ExecutablePool10AllocationELm2EE14expandCapacityEm
__ZN3AJL26stringProtoFuncToUpperCaseEPNS_9AJExcStateEPNS_8AJObjectENS_7AJValueERKNS_7ArgListE
__ZN3AJL21arrayProtoFuncIndexOfEPNS_9AJExcStateEPNS_8AJObjectENS_7AJValueERKNS_7ArgListE
__ZN3AJL16mathProtoFuncCosEPNS_9AJExcStateEPNS_8AJObjectENS_7AJValueERKNS_7ArgListE
__ZN3AJL17mathProtoFuncASinEPNS_9AJExcStateEPNS_8AJObjectENS_7AJValueERKNS_7ArgListE
_cti_op_loop_if_lesseq
__ZN3AJ7AJArray4sortEPNS_9AJExcStateE
__ZN3AJ7AJArray17compactForSortingEv
__ZL18makeRightShiftNodePN3AJ12AJGlobalDataEPNS_14ExpressionNodeES3_b
__ZN3AJ3JIT13emit_op_bitorEPNS_11InstructionE
__ZN3AJ3JIT17emitSlow_op_bitorEPNS_11InstructionERPNS_13SlowCaseEntryE
__ZN3ATF6VectorIN3AJ11StringRangeELm16EE14expandCapacityEm
__ZN3ATF6VectorIN3AJ7UStringELm16EE14expandCapacityEmPKS2_
__ZN3ATF6VectorIN3AJ7UStringELm16EE15reserveCapacityEm
__ZNK3AJ8AJString8toObjectEPNS_9AJExcStateE
__ZN3AJ12StringObject14deletePropertyEPNS_9AJExcStateERKNS_10IdentifierE
_cti_op_post_dec
__ZN3AJ3JIT14emit_op_bitxorEPNS_11InstructionE
__ZN3AJ3JIT18emitSlow_op_bitxorEPNS_11InstructionERPNS_13SlowCaseEntryE
_cti_op_bitand
_cti_op_bitor
__ZN7Aphid10StringImpl18simplifyWhiteSpaceEv
_cti_op_is_object
__ZN3AJ14jsIsObjectTypeENS_7AJValueE
__ZN3AJ17PrototypeFunction11getCallDataERNS_8CallDataE
__ZN3AJ14globalFuncEvalEPNS_9AJExcStateEPNS_8AJObjectENS_7AJValueERKNS_7ArgListE
__ZN3AJL19isNonASCIIIdentPartEi
__ZN3AJ11Interpreter7executeEPNS_14EvalExecutableEPNS_9AJExcStateEPNS_8AJObjectEPNS_14ScopeChainNodeEPNS_7AJValueE
_cti_op_mod
__ZN7Aphid6String6appendEc
__ZN7Aphid6String6appendEPKtj
__ZN3AJ16globalFuncEscapeEPNS_9AJExcStateEPNS_8AJObjectENS_7AJValueERKNS_7ArgListE
__ZNK7Aphid6String8foldCaseEv
__ZN7Aphid10StringImpl8foldCaseEv
__ZN3AJ10AJFunction15argumentsGetterEPNS_9AJExcStateENS_7AJValueERKNS_10IdentifierE
__ZNK3AJ11Interpreter17retrieveArgumentsEPNS_9AJExcStateEPNS_10AJFunctionE
__ZN3ATF6VectorIPN3AJ14ExpressionNodeELm16EE14expandCapacityEm
__ZN3ATF6VectorINS_6RefPtrIN3AJ10RegisterIDEEELm16EE15reserveCapacityEm
__ZN3ATF6VectorIN7Aphid6StringELm0EE14expandCapacityEm
__ZN3AJ8AJObject14deletePropertyEPNS_9AJExcStateEj
__ZN3AJ18globalFuncUnescapeEPNS_9AJExcStateEPNS_8AJObjectENS_7AJValueERKNS_7ArgListE
__ZN3ATF6VectorItLm64EE14expandCapacityEm
__ZN3AJ3JIT16emit_op_jeq_nullEPNS_11InstructionE
__ZN3ATF7CStringC1EPKc
__ZN3ATFeqERKNS_7CStringES2_
__ZN7Aphid17equalIgnoringCaseEPKtPKcj
__ZNK7Aphid6String6toUIntEPb
__ZN7Aphid10StringImpl6toUIntEPb
__ZN7Aphid16charactersToUIntEPKtmPb
__ZN7Aphid10StringImpl11reverseFindEti
__ZN3ATF23waitForThreadCompletionEjPPv
__ZN3ATF14FastMallocZone10statisticsEP14_malloc_zone_tP19malloc_statistics_t
__ZNK7Aphid6String18simplifyWhiteSpaceEv
__ZN7Aphid10StringImpl23defaultWritingDirectionEv
__ZN3AJL20dateProtoFuncSetTimeEPNS_9AJExcStateEPNS_8AJObjectENS_7AJValueERKNS_7ArgListE
__ZN3AJL21dateProtoFuncGetMonthEPNS_9AJExcStateEPNS_8AJObjectENS_7AJValueERKNS_7ArgListE
__ZNK3AJ12DateInstance26calculateGregorianDateTimeEPNS_9AJExcStateE
__ZN3AJ21msToGregorianDateTimeEPNS_9AJExcStateEdbRNS_17GregorianDateTimeE
__ZN3ATFL18calculateDSTOffsetEdd
__ZN3AJL20dateProtoFuncGetDateEPNS_9AJExcStateEPNS_8AJObjectENS_7AJValueERKNS_7ArgListE
__ZNK3AJ7AJValue8inheritsEPKNS_9ClassInfoE
__ZN3AJL20dateProtoFuncGetYearEPNS_9AJExcStateEPNS_8AJObjectENS_7AJValueERKNS_7ArgListE
__ZN3AJL21dateProtoFuncGetHoursEPNS_9AJExcStateEPNS_8AJObjectENS_7AJValueERKNS_7ArgListE
__ZN3AJL23dateProtoFuncGetMinutesEPNS_9AJExcStateEPNS_8AJObjectENS_7AJValueERKNS_7ArgListE
__ZN3AJ3JIT17emit_op_jneq_nullEPNS_11InstructionE
__ZN3AJL20dateProtoFuncSetYearEPNS_9AJExcStateEPNS_8AJObjectENS_7AJValueERKNS_7ArgListE
__ZNK3AJ7AJValue7toInt32EPNS_9AJExcStateERb
__ZN3AJ21gregorianDateTimeToMSEPNS_9AJExcStateERKNS_17GregorianDateTimeEdb
__ZN3ATF18dateToDaysFrom1970Eiii
__ZN3AJL21dateProtoFuncSetMonthEPNS_9AJExcStateEPNS_8AJObjectENS_7AJValueERKNS_7ArgListE
__ZN3AJL23setNewValueFromDateArgsEPNS_9AJExcStateENS_7AJValueERKNS_7ArgListEib
__ZN3AJL20dateProtoFuncSetDateEPNS_9AJExcStateEPNS_8AJObjectENS_7AJValueERKNS_7ArgListE
__ZN3AJL24dateProtoFuncToGMTStringEPNS_9AJExcStateEPNS_8AJObjectENS_7AJValueERKNS_7ArgListE
__ZNK3AJ12DateInstance29calculateGregorianDateTimeUTCEPNS_9AJExcStateE
__ZN3AJ20formatDateUTCVariantERKNS_17GregorianDateTimeERA100_c
__ZN3AJ13formatTimeUTCERKNS_17GregorianDateTimeERA100_c
__ZN3AJ13tryMakeStringIPcPKcS1_EEN3ATF10PassRefPtrIN7Aphid10StringImplEEET_T0_T1_
__ZN3AJ9parseDateEPNS_9AJExcStateERKNS_7UStringE
__ZN3AJ37parseDateFromNullTerminatedCharactersEPNS_9AJExcStateEPKc
__ZN3AJ16ArrayConstructor16getConstructDataERNS_13ConstructDataE
__ZN3AJL29constructWithArrayConstructorEPNS_9AJExcStateEPNS_8AJObjectERKNS_7ArgListE
__ZN3AJL27constructArrayWithSizeQuirkEPNS_9AJExcStateERKNS_7ArgListE
__ZN3AJ7AJArrayC1EN3ATF17NonNullPassRefPtrINS_9StructureEEEj
__ZN3AJ17StringConstructor16getConstructDataERNS_13ConstructDataE
__ZN3AJL30constructWithStringConstructorEPNS_9AJExcStateEPNS_8AJObjectERKNS_7ArgListE
__ZN3AJ12StringObjectC1EPNS_9AJExcStateEN3ATF17NonNullPassRefPtrINS_9StructureEEERKNS_7UStringE
__ZN3AJ12StringObjectC2EPNS_9AJExcStateEN3ATF17NonNullPassRefPtrINS_9StructureEEERKNS_7UStringE
_cti_op_pre_inc
__ZN3AJL23dateProtoFuncGetSecondsEPNS_9AJExcStateEPNS_8AJObjectENS_7AJValueERKNS_7ArgListE
__ZN7Aphid6String6removeEji
__ZN3AJ23MacroAssemblerX86Common12branchTest32ENS0_9ConditionENS_22AbstractMacroAssemblerINS_12X86AssemblerEE7AddressENS4_5Imm
__ZN3AJ23MacroAssemblerX86Common8branch32ENS0_9ConditionENS_22AbstractMacroAssemblerINS_12X86AssemblerEE7AddressENS4_5Imm32E
__ZN3AJ12X86Assembler23X86InstructionFormatter9twoByteOpENS0_15TwoByteOpcodeIDEiNS_12X86Registers10RegisterIDEi
__ZNK3AJ7UStringixEj
__ZN3AJ3JIT19emit_op_to_jsnumberEPNS_11InstructionE
__ZN3AJ3JIT23emitSlow_op_to_jsnumberEPNS_11InstructionERPNS_13SlowCaseEntryE
_cti_op_to_jsnumber
__ZN3AJL30dateProtoFuncGetTimezoneOffsetEPNS_9AJExcStateEPNS_8AJObjectENS_7AJValueERKNS_7ArgListE
__ZN3AJ5Error6createEPNS_9AJExcStateENS_9ErrorTypeERKNS_7UStringEilS6_
__ZN3AJ22NativeErrorConstructor16getConstructDataERNS_13ConstructDataE
__ZN3AJ9constructEPNS_9AJExcStateENS_7AJValueENS_13ConstructTypeERKNS_13ConstructDataERKNS_7ArgListE
__ZN3AJL35constructWithNativeErrorConstructorEPNS_9AJExcStateEPNS_8AJObjectERKNS_7ArgListE
__ZN3AJ22NativeErrorConstructor9constructEPNS_9AJExcStateERKNS_7ArgListE
__ZN3AJ13ErrorInstanceC1EN3ATF17NonNullPassRefPtrINS_9StructureEEE
__ZN3AJ8AJObject17putWithAttributesEPNS_9AJExcStateERKNS_10IdentifierENS_7AJValueEj
__ZNK3AJ8AJObject13exceptionTypeEv
__ZN3AJL22errorProtoFuncToStringEPNS_9AJExcStateEPNS_8AJObjectENS_7AJValueERKNS_7ArgListE
__ZN3AJ13tryMakeStringINS_7UStringEPKcS1_EEN3ATF10PassRefPtrIN7Aphid10StringImplEEET_T0_T1_
__ZN3AJ13ErrorInstanceD1Ev
__ZN3AJ4Heap9freeBlockEm
__ZN3AJ4Heap12freeBlockPtrEPNS_14CollectorBlockE
__ZN3AJ28createUndefinedVariableErrorEPNS_9AJExcStateERKNS_10IdentifierEjPNS_9CodeBlockE
__ZN3AJ9CodeBlock32expressionRangeForBytecodeOffsetEPNS_9AJExcStateEjRiS3_S3_
__ZN3AJ10makeStringIPKcNS_7UStringEEES3_T_T0_
__ZN3AJ13tryMakeStringIPKcNS_7UStringEEEN3ATF10PassRefPtrIN7Aphid10StringImplEEET_T0_
__ZN3AJL23returnToThrowTrampolineEPNS_12AJGlobalDataENS_16ReturnAddressPtrERS2_
_ctiVMThrowTrampoline
_cti_vm_throw
__ZNK3AJ8AJObject22isNotAnObjectErrorStubEv
__ZNK3AJ7UString5asciiEv
__ZN3AJ6AJLock12DropAllLocksC1ENS_14AJLockBehaviorE
__ZN3AJL17createAJLockCountEv
__ZN3AJ6AJLock12DropAllLocksD1Ev
__ZNK7Aphid6String5upperEv
__ZN3AJ4Yarr23RegexPatternConstructor31atomParentheticalAssertionBeginEb
__ZN3AJ4Yarr14RegexGenerator30generateParentheticalAssertionERNS1_19TermGenerationStateE
__ZNK3AJ8AJObject8toNumberEPNS_9AJExcStateE
__ZN3ATF6VectorIPN3AJ4Yarr18PatternDisjunctionELm4EE14expandCapacityEmPKS4_
__ZN3AJL18regExpObjectSourceEPNS_9AJExcStateENS_7AJValueERKNS_10IdentifierE
__ZN3AJ17RegExpConstructor11getCallDataERNS_8CallDataE
__ZN3AJL21callRegExpConstructorEPNS_9AJExcStateEPNS_8AJObjectENS_7AJValueERKNS_7ArgListE
__ZN3AJ23objectProtoFuncToStringEPNS_9AJExcStateEPNS_8AJObjectENS_7AJValueERKNS_7ArgListE
__ZNK3AJ8AJObject9classNameEv
__ZN3AJ13tryMakeStringIPKcNS_7UStringES2_EEN3ATF10PassRefPtrIN7Aphid10StringImplEEET_T0_T1_
__ZN3AJ16JSVariableObject14deletePropertyEPNS_9AJExcStateERKNS_10IdentifierE
__ZN3AJ9Structure27despecifyDictionaryFunctionERKNS_10IdentifierE
__ZN3AJ36constructBooleanFromImmediateBooleanEPNS_9AJExcStateENS_7AJValueE
__ZN3AJ13BooleanObjectC1EN3ATF17NonNullPassRefPtrINS_9StructureEEE
__ZN3AJ17ObjectConstructor16getConstructDataERNS_13ConstructDataE
__ZN3AJL30constructWithObjectConstructorEPNS_9AJExcStateEPNS_8AJObjectERKNS_7ArgListE
__ZNK3AJ9ArrayNode13isSimpleArrayEv
__ZN3AJ7AJArray14deletePropertyEPNS_9AJExcStateERKNS_10IdentifierE
__ZN3AJL27compareByStringPairForQSortEPKvS1_
__ZN3AJ7compareERKNS_7UStringES2_
__ZN3AJL24dateProtoFuncToUTCStringEPNS_9AJExcStateEPNS_8AJObjectENS_7AJValueERKNS_7ArgListE
__ZN3AJ17NumberConstructor16getConstructDataERNS_13ConstructDataE
__ZN3AJL30constructWithNumberConstructorEPNS_9AJExcStateEPNS_8AJObjectERKNS_7ArgListE
__ZN3AJ12NumberObjectC1EN3ATF17NonNullPassRefPtrINS_9StructureEEE
__ZN3AJL20isNonASCIIIdentStartEi
__ZN3AJ9Arguments3putEPNS_9AJExcStateERKNS_10IdentifierENS_7AJValueERNS_15PutPropertySlotE
__ZN3AJ14MacroAssembler4peekENS_12X86Registers10RegisterIDEi
__ZN3AJ4Yarr14RegexGenerator12atEndOfInputEv
__ZN3AJ14MacroAssembler8branch32ENS_23MacroAssemblerX86Common9ConditionENS_12X86Registers10RegisterIDENS_22AbstractMacroAssemb
__ZN3AJ22AbstractMacroAssemblerINS_12X86AssemblerEE8JumpList6linkToENS2_5LabelEPS2_
__ZN3AJ14MacroAssembler4pokeENS_12X86Registers10RegisterIDEi
__ZN3AJL28substituteBackreferencesSlowERKNS_7UStringES2_PKiPNS_6RegExpEj
__ZN3ATF6VectorItLm0EE6appendItEEvPKT_m
_cti_op_to_primitive
__ZN3AJ15constructNumberEPNS_9AJExcStateENS_7AJValueE
__ZNK3AJ12NumberObject9classInfoEv
__Z12jsRegExpFreeP8JSRegExp
__ZN3AJ13BooleanObjectD1Ev
__ZN3AJL18stringFromCharCodeEPNS_9AJExcStateEPNS_8AJObjectENS_7AJValueERKNS_7ArgListE
__ZN3AJ10makeStringIPKcNS_7UStringES2_EES3_T_T0_T1_
__ZN3AJL19dateProtoFuncGetDayEPNS_9AJExcStateEPNS_8AJObjectENS_7AJValueERKNS_7ArgListE
__ZN3AJ14EvalExecutable20reparseExceptionInfoEPNS_12AJGlobalDataEPNS_14ScopeChainNodeEPNS_9CodeBlockE
__ZN3AJL22objectProtoFuncValueOfEPNS_9AJExcStateEPNS_8AJObjectENS_7AJValueERKNS_7ArgListE
__ZN3AJ8AJObject18getPrimitiveNumberEPNS_9AJExcStateERdRNS_7AJValueE
__ZN3AJL24dateProtoFuncGetFullYearEPNS_9AJExcStateEPNS_8AJObjectENS_7AJValueERKNS_7ArgListE
__ZN3AJ12RegExpObject3putEPNS_9AJExcStateERKNS_10IdentifierENS_7AJValueERNS_15PutPropertySlotE
__ZN3AJL24setRegExpObjectLastIndexEPNS_9AJExcStateEPNS_8AJObjectENS_7AJValueE
__Z15jsc_pcre_xclassiPKh
__ZN3AJL28regExpConstructorLeftContextEPNS_9AJExcStateENS_7AJValueERKNS_10IdentifierE
__ZNK3AJ17RegExpConstructor14getLeftContextEPNS_9AJExcStateE
_cti_to_object
__ZNK3AJ7AJValue16toObjectSlowCaseEPNS_9AJExcStateE
_cti_op_sub
__ZN3AJ17NumberConstructor11getCallDataERNS_8CallDataE
__ZN3AJL21callNumberConstructorEPNS_9AJExcStateEPNS_8AJObjectENS_7AJValueERKNS_7ArgListE
_cti_op_bitxor
_cti_op_is_function
__ZN3AJ16jsIsFunctionTypeENS_7AJValueE
__ZN3AJ12NumberObjectD1Ev
__ZN3ATF6VectorIN3AJ22AbstractMacroAssemblerINS1_12X86AssemblerEE4JumpELm16EE14expandCapacityEm
__ZN3AJ8AJString18getPrimitiveNumberEPNS_9AJExcStateERdRNS_7AJValueE
__ZN7Aphid6String26fromUTF8WithLatin1FallbackEPKcm
__ZN7Aphid6String8fromUTF8EPKcm
__ZN3ATF10fastStrDupEPKc
__ZN3AJ10throwErrorEPNS_9AJExcStateENS_9ErrorTypeE
__ZN3ATF6VectorIN3AJ15StringJumpTableELm0EE14expandCapacityEm
__ZN3ATF9HashTableINS_6RefPtrIN7Aphid10StringImplEEESt4pairIS4_N3AJ14OffsetLocationEENS_18PairFirstExtractorIS8_EENS2_10Stri
__ZN3AJ3JIT21emit_op_switch_stringEPNS_11InstructionE
__ZN3AJ13LiteralParser5Lexer9lexNumberERNS1_18LiteralParserTokenE
__ZN3ATF6VectorIPNS_14StringImplBaseELm32EE14expandCapacityEm
__ZN3AJ4Yarr17nonwordcharCreateEv
__ZN3AJ3JIT15emit_op_eq_nullEPNS_11InstructionE
_cti_op_switch_string
__ZN3AJ12X86Assembler23X86InstructionFormatter15emitRexIfNeededEiii
__ZN3AJ12X86Assembler23X86InstructionFormatter11memoryModRMEiNS_12X86Registers10RegisterIDES3_ii
__ZN3AJ4Yarr6ParserINS0_23RegexPatternConstructorEE28CharacterClassParserDelegate25atomBuiltInCharacterClassENS0_23BuiltInChar
__ZN3AJ4Yarr15nonspacesCreateEv
__ZN3AJL25functionProtoFuncToStringEPNS_9AJExcStateEPNS_8AJObjectENS_7AJValueERKNS_7ArgListE
__ZNK3AJ21UStringSourceProvider8getRangeEii
__ZNK3AJ7UString6substrEjj
__ZN3AJ10makeStringINS_7UStringEPKcS1_EES1_T_T0_T1_
__ZNK3AJ18FunctionExecutable11paramStringEv
__ZN3ATF6VectorItLm64EE6appendItEEvPKT_m
__ZN3AJ13tryMakeStringIPKcNS_7UStringES2_S3_S2_S3_EEN3ATF10PassRefPtrIN7Aphid10StringImplEEET_T0_T1_T2_T3_T4_
__ZN3AJ17RegExpConstructor3putEPNS_9AJExcStateERKNS_10IdentifierENS_7AJValueERNS_15PutPropertySlotE
__ZN3AJL21arrayProtoFuncForEachEPNS_9AJExcStateEPNS_8AJObjectENS_7AJValueERKNS_7ArgListE
__ZN3AJ10AJFunction14deletePropertyEPNS_9AJExcStateERKNS_10IdentifierE
__ZN3AJL22arrayProtoFuncToStringEPNS_9AJExcStateEPNS_8AJObjectENS_7AJValueERKNS_7ArgListE
__ZN3AJ16ErrorConstructor16getConstructDataERNS_13ConstructDataE
__ZN3AJL29constructWithErrorConstructorEPNS_9AJExcStateEPNS_8AJObjectERKNS_7ArgListE
__ZN3AJ14constructErrorEPNS_9AJExcStateERKNS_7ArgListE
_cti_op_instanceof
__ZN3AJ6RegExp6createEPNS_12AJGlobalDataERKNS_7UStringE
__ZN3ATF9HashTableIPN7Aphid10StringImplES3_NS_17IdentityExtractorIS3_EENS_7PtrHashIS3_EENS_10HashTraitsIS3_EES9_E4findIS3_NS_
_cti_op_get_by_id_string_fail
__ZN3AJL20stringProtoFuncSliceEPNS_9AJExcStateEPNS_8AJObjectENS_7AJValueERKNS_7ArgListE
__ZN3AJ14MacroAssembler4jumpENS_22AbstractMacroAssemblerINS_12X86AssemblerEE5LabelE
__ZN3AJL23regExpProtoFuncToStringEPNS_9AJExcStateEPNS_8AJObjectENS_7AJValueERKNS_7ArgListE
__ZN3AJL18regExpObjectGlobalEPNS_9AJExcStateENS_7AJValueERKNS_10IdentifierE
__ZN3AJL22regExpObjectIgnoreCaseEPNS_9AJExcStateENS_7AJValueERKNS_10IdentifierE
__ZN3AJL21regExpObjectMultilineEPNS_9AJExcStateENS_7AJValueERKNS_10IdentifierE
__ZN3AJ13tryMakeStringIPKcNS_7UStringEPcEEN3ATF10PassRefPtrIN7Aphid10StringImplEEET_T0_T1_
__ZN3AJ12JSActivation14deletePropertyEPNS_9AJExcStateERKNS_10IdentifierE
__ZN3ATFL10timerFiredEP16__CFRunLoopTimerPv
__ZN7Aphid22charactersToUIntStrictEPKtmPbi
__ZN3ATF9HashTableIjSt4pairIjN3AJ7AJValueEENS_18PairFirstExtractorIS4_EENS_7IntHashIjEENS_14PairHashTraitsINS_10HashTraitsIjEE
__ZN3AJL23dateProtoFuncSetMinutesEPNS_9AJExcStateEPNS_8AJObjectENS_7AJValueERKNS_7ArgListE
__ZN3AJL23setNewValueFromTimeArgsEPNS_9AJExcStateENS_7AJValueERKNS_7ArgListEib
__ZN3AJL23dateProtoFuncSetSecondsEPNS_9AJExcStateEPNS_8AJObjectENS_7AJValueERKNS_7ArgListE
__ZN3AJL28dateProtoFuncSetMilliSecondsEPNS_9AJExcStateEPNS_8AJObjectENS_7AJValueERKNS_7ArgListE
__ZN3AJL9dateParseEPNS_9AJExcStateEPNS_8AJObjectENS_7AJValueERKNS_7ArgListE
__ZN3AJL21dateProtoFuncToStringEPNS_9AJExcStateEPNS_8AJObjectENS_7AJValueERKNS_7ArgListE
__ZN3AJ10formatDateERKNS_17GregorianDateTimeERA100_c
__ZN3AJ10formatTimeERKNS_17GregorianDateTimeERA100_c
__ZN3AJ19globalFuncEncodeURIEPNS_9AJExcStateEPNS_8AJObjectENS_7AJValueERKNS_7ArgListE
__ZN3AJ13UnaryPlusNode14stripUnaryPlusEv
__ZN3AJL20arrayProtoFuncFilterEPNS_9AJExcStateEPNS_8AJObjectENS_7AJValueERKNS_7ArgListE
__ZN3AJL27objectProtoFuncLookupGetterEPNS_9AJExcStateEPNS_8AJObjectENS_7AJValueERKNS_7ArgListE
__ZN3AJ8AJObject12lookupGetterEPNS_9AJExcStateERKNS_10IdentifierE
__ZNK3AJ6AJCell14isGetterSetterEv
__ZN3AJL27objectProtoFuncDefineSetterEPNS_9AJExcStateEPNS_8AJObjectENS_7AJValueERKNS_7ArgListE
__ZN3AJ8AJObject12defineSetterEPNS_9AJExcStateERKNS_10IdentifierEPS0_j
__ZN3AJL27objectProtoFuncDefineGetterEPNS_9AJExcStateEPNS_8AJObjectENS_7AJValueERKNS_7ArgListE
__ZN3AJ8AJObject12defineGetterEPNS_9AJExcStateERKNS_10IdentifierEPS0_j
__ZNK3AJ12GetterSetter14isGetterSetterEv
__ZN3AJ8AJObject15unwrappedObjectEv
__ZN3AJ10AJFunction12callerGetterEPNS_9AJExcStateENS_7AJValueERKNS_10IdentifierE
__ZNK3AJ11Interpreter14retrieveCallerEPNS_9AJExcStateEPNS_16InternalFunctionE
__ZN3AJ16toUInt32SlowCaseEdRb
__ZN3AJ8AJObject22fillGetterPropertySlotERNS_12PropertySlotEPNS_7AJValueE
__ZNK3AJ12PropertySlot14functionGetterEPNS_9AJExcStateE
_cti_op_get_by_id_getter_stub
__ZN3AJ12GetterSetter12markChildrenERNS_9MarkStackE
__ZN3AJL17mathProtoFuncACosEPNS_9AJExcStateEPNS_8AJObjectENS_7AJValueERKNS_7ArgListE
__ZN3ATF13tryFastCallocEmm
__ZN3AJ3JIT20emit_op_resolve_skipEPNS_11InstructionE
_cti_op_resolve_skip
__ZN3AJ3JIT15emit_op_urshiftEPNS_11InstructionE
__ZN3AJ3JIT19emitSlow_op_urshiftEPNS_11InstructionERPNS_13SlowCaseEntryE
__ZN3AJL25stringProtoFuncCharCodeAtEPNS_9AJExcStateEPNS_8AJObjectENS_7AJValueERKNS_7ArgListE
__ZN3ATF6VectorIcLm0EE14expandCapacityEm
__ZN3AJ15AssignErrorNode12emitBytecodeERNS_17BytecodeGeneratorEPNS_10RegisterIDE
__ZN3AJ23ThrowableExpressionData14emitThrowErrorERNS_17BytecodeGeneratorENS_9ErrorTypeEPKc
__ZN3AJ17BytecodeGenerator12emitNewErrorEPNS_10RegisterIDENS_9ErrorTypeENS_7AJValueE
__ZN3AJ3JIT17emit_op_new_errorEPNS_11InstructionE
__ZN3AJL27objectProtoFuncLookupSetterEPNS_9AJExcStateEPNS_8AJObjectENS_7AJValueERKNS_7ArgListE
__ZN3AJ8AJObject12lookupSetterEPNS_9AJExcStateERKNS_10IdentifierE
__ZN3AJ26createNotAnObjectErrorStubEPNS_9AJExcStateEb
__ZN3AJ13JSNotAnObject18getOwnPropertySlotEPNS_9AJExcStateERKNS_10IdentifierERNS_12PropertySlotE
__ZNK3AJ22JSNotAnObjectErrorStub22isNotAnObjectErrorStubEv
__ZN3AJ22createNotAnObjectErrorEPNS_9AJExcStateEPNS_22JSNotAnObjectErrorStubEjPNS_9CodeBlockE
__ZN3AJ9CodeBlock37getByIdExceptionInfoForBytecodeOffsetEPNS_9AJExcStateEjRNS_8OpcodeIDE
__ZN3AJL18createErrorMessageEPNS_9AJExcStateEPNS_9CodeBlockEiiiNS_7AJValueENS_7UStringE
__ZN3AJ10makeStringIPKcNS_7UStringES2_S3_S2_S3_S2_EES3_T_T0_T1_T2_T3_T4_T5_
__ZN3AJ13tryMakeStringIPKcNS_7UStringES2_S3_S2_S3_S2_EEN3ATF10PassRefPtrIN7Aphid10StringImplEEET_T0_T1_T2_T3_T4_T5_
__ZN3AJ22JSNotAnObjectErrorStubD1Ev
__ZN3AJ13JSNotAnObjectD1Ev
__ZN3AJ12GetterSetterD1Ev
__ZN3AJ20FixedVMPoolAllocator17coalesceFreeSpaceEv
__ZN3ATF6VectorIPN3AJ13FreeListEntryELm0EE15reserveCapacityEm
__ZN3AJL35reverseSortFreeListEntriesByPointerEPKvS1_
__ZN3AJL33reverseSortCommonSizedAllocationsEPKvS1_
__ZN7Aphid20equalIgnoringNullityEPNS_10StringImplES1_
__ZN3AJ19globalFuncDecodeURIEPNS_9AJExcStateEPNS_8AJObjectENS_7AJValueERKNS_7ArgListE
__ZN3AJ16ErrorConstructor11getCallDataERNS_8CallDataE
__ZN3AJL20callErrorConstructorEPNS_9AJExcStateEPNS_8AJObjectENS_7AJValueERKNS_7ArgListE
__ZN3AJL22functionProtoFuncApplyEPNS_9AJExcStateEPNS_8AJObjectENS_7AJValueERKNS_7ArgListE
__ZN3AJ9Arguments11fillArgListEPNS_9AJExcStateERNS_20MarkedArgumentBufferE
__ZN3AJL21functionProtoFuncCallEPNS_9AJExcStateEPNS_8AJObjectENS_7AJValueERKNS_7ArgListE
__ZN3AJ10JSONObject18getOwnPropertySlotEPNS_9AJExcStateERKNS_10IdentifierERNS_12PropertySlotE
_cti_op_lshift
__ZN3AJL29regExpConstructorRightContextEPNS_9AJExcStateENS_7AJValueERKNS_10IdentifierE
__ZNK3AJ17RegExpConstructor15getRightContextEPNS_9AJExcStateE
__ZN3AJ20MarkedArgumentBuffer10slowAppendENS_7AJValueE
__ZN3ATF9HashTableIPN3AJ20MarkedArgumentBufferES3_NS_17IdentityExtractorIS3_EENS_7PtrHashIS3_EENS_10HashTraitsIS3_EES9_E6expan
__ZN3ATF6VectorIN3AJ8RegisterELm8EE15reserveCapacityEm
__ZN3ATF9HashTableIPN3AJ20MarkedArgumentBufferES3_NS_17IdentityExtractorIS3_EENS_7PtrHashIS3_EENS_10HashTraitsIS3_EES9_E4findI
__ZN3AJL26stringFromCharCodeSlowCaseEPNS_9AJExcStateERKNS_7ArgListE
__ZN3AJ4Yarr12RegexPattern21newlineCharacterClassEv
__ZN3AJ10AJFunction12lengthGetterEPNS_9AJExcStateENS_7AJValueERKNS_10IdentifierE
__ZN3AJ18globalFuncIsFiniteEPNS_9AJExcStateEPNS_8AJObjectENS_7AJValueERKNS_7ArgListE
__ZN3AJ16ArrayConstructor11getCallDataERNS_8CallDataE
__ZN3AJL20callArrayConstructorEPNS_9AJExcStateEPNS_8AJObjectENS_7AJValueERKNS_7ArgListE
__ZN3AJL19stringProtoFuncTrimEPNS_9AJExcStateEPNS_8AJObjectENS_7AJValueERKNS_7ArgListE
__ZN3AJ15isStrWhiteSpaceEt
__ZN3AJ6AJCell9getObjectEv
_ctiOpThrowNotCaught
__ZN3AJL22numberProtoFuncValueOfEPNS_9AJExcStateEPNS_8AJObjectENS_7AJValueERKNS_7ArgListE
__ZN3AJ12NumberObject11getJSNumberEv
__ZN7Aphid10StringImpl6secureEt
__ZN3AJ23createNotAFunctionErrorEPNS_9AJExcStateENS_7AJValueEjPNS_9CodeBlockE
_cti_op_rshift
__ZN3AJ13JSNotAnObject18getOwnPropertySlotEPNS_9AJExcStateEjRNS_12PropertySlotE
__ZN3ATF6VectorIN3AJ22AbstractMacroAssemblerINS1_12X86AssemblerEE4JumpELm16EEC2ERKS6_
__ZN3AJL21arrayProtoFuncReverseEPNS_9AJExcStateEPNS_8AJObjectENS_7AJValueERKNS_7ArgListE
__ZN3ATF21CrossThreadRefCountedINS_16OwnFastMallocPtrIKtEEE5derefEv
_cti_op_post_inc
__ZN3AJL21regExpObjectLastIndexEPNS_9AJExcStateENS_7AJValueERKNS_10IdentifierE
__ZN3AJ3JIT14emit_op_bitnotEPNS_11InstructionE
__ZN3AJ3JIT18emitSlow_op_bitnotEPNS_11InstructionERPNS_13SlowCaseEntryE
_cti_op_bitnot
__ZNK3AJ10JSONObject9classInfoEv
_AJGlobalContextCreate
_AJGlobalContextCreateInGroup
__ZN3AJ12AJGlobalData18createContextGroupENS_15ThreadStackTypeE
__ZN3AJ21createIdentifierTableEv
__ZN3AJ4Heap29makeUsableFromMultipleThreadsEv
__ZN3AJ6AJLock6unlockENS_14AJLockBehaviorE
_AJValueMakeFromJSONString
_AJValueIsNull
_AJValueIsUndefined
_AJValueIsBoolean
_AJValueIsNumber
_AJValueIsString
__ZN3AJ14AJGlobalObject18getOwnPropertySlotEPNS_9AJExcStateERKNS_10IdentifierERNS_12PropertySlotE
_AJValueIsInstanceOfConstructor
__ZN3AJ8AJObject11hasInstanceEPNS_9AJExcStateENS_7AJValueES3_
_AJValueToNumber
_AJObjectGetPropertyAtIndex
_AJValueToStringCopy
__ZN14OpaqueAJString6createERKN3AJ7UStringE
_AJStringCopyCFString
__ZN3AJ4Heap7destroyEv
__ZN3AJ4Heap10freeBlocksEv
__ZN3AJ14AJGlobalObjectD1Ev
__ZN3AJ14AJGlobalObject25destroyAJGlobalObjectDataEPv
__ZN3AJ12AJGlobalDataD1Ev
__ZN3AJ12AJGlobalDataD2Ev
__ZN3AJ12RegisterFileD1Ev
__ZNK3AJ9HashTable11deleteTableEv
__ZN3AJ5LexerD1Ev
__ZN3ATF20deleteAllPairSecondsIP24OpaqueAJClassContextDataKNS_7HashMapIP13OpaqueAJClassS2_NS_7PtrHashIS5_EENS_10HashTraitsIS5_E
__ZN3AJ17CommonIdentifiersD2Ev
__ZN3AJ21deleteIdentifierTableEPNS_15IdentifierTableE
__ZN3AJ15IdentifierTableD2Ev
__ZN3AJ4HeapD1Ev
__ZN3AJ9JITThunksD1Ev
__ZN3AJ16NativeExecutableD0Ev
__ZN3AJ12SmallStringsD1Ev
__ZN3AJ14AJGlobalObject17putWithAttributesEPNS_9AJExcStateERKNS_10IdentifierENS_7AJValueEj
__ZN3AJ17ObjectConstructor11getCallDataERNS_8CallDataE
__ZN3AJL21callObjectConstructorEPNS_9AJExcStateEPNS_8AJObjectENS_7AJValueERKNS_7ArgListE
__ZN3AJ9Arguments14deletePropertyEPNS_9AJExcStateEj
__ZN3AJL18JSONProtoFuncParseEPNS_9AJExcStateEPNS_8AJObjectENS_7AJValueERKNS_7ArgListE
__ZN3AJ7AJArray11fillArgListEPNS_9AJExcStateERNS_20MarkedArgumentBufferE
__ZN3AJL17arrayProtoFuncMapEPNS_9AJExcStateEPNS_8AJObjectENS_7AJValueERKNS_7ArgListE
__ZN3AJ12StringObjectC1EPNS_9AJExcStateEN3ATF17NonNullPassRefPtrINS_9StructureEEE
__ZN3AJ23MacroAssemblerX86Common9urshift32ENS_12X86Registers10RegisterIDES2_
_cti_op_urshift
__ZN3AJ15ObjectPrototype3putEPNS_9AJExcStateERKNS_10IdentifierENS_7AJValueERNS_15PutPropertySlotE
__ZN3AJL21stringProtoFuncConcatEPNS_9AJExcStateEPNS_8AJObjectENS_7AJValueERKNS_7ArgListE
__ZN3AJL24regExpConstructorDollar2EPNS_9AJExcStateENS_7AJValueERKNS_10IdentifierE
__ZN3AJL24regExpConstructorDollar3EPNS_9AJExcStateENS_7AJValueERKNS_10IdentifierE
__ZN3AJL24regExpConstructorDollar4EPNS_9AJExcStateENS_7AJValueERKNS_10IdentifierE
__ZN3AJ20MarkedArgumentBuffer9markListsERNS_9MarkStackERN3ATF7HashSetIPS0_NS3_7PtrHashIS5_EENS3_10HashTraitsIS5_EEEE
__ZN3AJL22numberProtoFuncToFixedEPNS_9AJExcStateEPNS_8AJObjectENS_7AJValueERKNS_7ArgListE
__ZN3AJL16integerPartNoExpEd
__ZN3AJ10makeStringINS_7UStringES1_PKcS1_EES1_T_T0_T1_T2_
__ZN3AJ13tryMakeStringINS_7UStringES1_PKcS1_EEN3ATF10PassRefPtrIN7Aphid10StringImplEEET_T0_T1_T2_
__ZN3AJL26numberProtoFuncToPrecisionEPNS_9AJExcStateEPNS_8AJObjectENS_7AJValueERKNS_7ArgListE
__ZN3AJL12charSequenceEci
__ZN3AJ13tryMakeStringINS_7UStringEPKcS1_S1_EEN3ATF10PassRefPtrIN7Aphid10StringImplEEET_T0_T1_T2_
__ZN3AJL24booleanProtoFuncToStringEPNS_9AJExcStateEPNS_8AJObjectENS_7AJValueERKNS_7ArgListE
__ZNK3AJ12JSActivation12toThisObjectEPNS_9AJExcStateE
_cti_op_div
__ZN3AJ17BytecodeGenerator21emitComplexJumpScopesEPNS_5LabelEPNS_18ControlFlowContextES4_
__ZN7Aphid10StringImpl7replaceEjjPS0_
__ZN3AJ12RegExpObject11getCallDataERNS_8CallDataE
__ZN3AJ12StringObject19getOwnPropertyNamesEPNS_9AJExcStateERNS_17PropertyNameArrayENS_15EnumerationModeE
__ZN3AJ9AJExcState11stringTableEPS0_
__ZNK3AJ7AJValue16synthesizeObjectEPNS_9AJExcStateE
__ZN3AJ13JSNotAnObject3putEPNS_9AJExcStateERKNS_10IdentifierENS_7AJValueERNS_15PutPropertySlotE
__ZN3AJL35objectProtoFuncPropertyIsEnumerableEPNS_9AJExcStateEPNS_8AJObjectENS_7AJValueERKNS_7ArgListE
__ZNK3AJ8AJObject20propertyIsEnumerableEPNS_9AJExcStateERKNS_10IdentifierE
__ZN3AJ7AJArray24getOwnPropertyDescriptorEPNS_9AJExcStateERKNS_10IdentifierERNS_18PropertyDescriptorE
__ZN3AJ18PropertyDescriptor13setDescriptorENS_7AJValueEj
__ZNK3AJ18PropertyDescriptor10enumerableEv
__ZN3AJL22JSONProtoFuncStringifyEPNS_9AJExcStateEPNS_8AJObjectENS_7AJValueERKNS_7ArgListE
__ZN3AJ11StringifierC2EPNS_9AJExcStateENS_7AJValueES3_
__ZN3AJ11Stringifier9stringifyENS_7AJValueE
__ZN3AJ11Stringifier22appendStringifiedValueERNS_13StringBuilderENS_7AJValueEPNS_8AJObjectERKNS_27PropertyNameForFunctionCallE
__ZNK3AJ6AJCell9getStringEPNS_9AJExcStateERNS_7UStringE
__ZN3AJ11Stringifier6Holder18appendNextPropertyERS0_RNS_13StringBuilderE
__ZN3AJ11Stringifier18appendQuotedStringERNS_13StringBuilderERKNS_7UStringE
__ZN3AJ11StringifierD2Ev
__ZN3AJ5Lexer19copyCodeWithoutBOMsEv
__ZN3AJL21dateProtoFuncSetHoursEPNS_9AJExcStateEPNS_8AJObjectENS_7AJValueERKNS_7ArgListE
__ZN3AJ17FunctionPrototype11getCallDataERNS_8CallDataE
__ZN3AJL28dateProtoFuncGetMilliSecondsEPNS_9AJExcStateEPNS_8AJObjectENS_7AJValueERKNS_7ArgListE
__ZN3AJ10makeStringINS_7UStringES1_EES1_T_T0_
__ZN3AJ13tryMakeStringINS_7UStringES1_EEN3ATF10PassRefPtrIN7Aphid10StringImplEEET_T0_
__ZN3AJ23MacroAssemblerX86Common8branch16ENS0_9ConditionENS_22AbstractMacroAssemblerINS_12X86AssemblerEE9BaseIndexENS4_5Imm32E
__Z22jsc_pcre_ucp_othercasej
__ZN3AJ8AJString18getOwnPropertySlotEPNS_9AJExcStateEjRNS_12PropertySlotE
__ZN3AJL24dateProtoFuncSetUTCHoursEPNS_9AJExcStateEPNS_8AJObjectENS_7AJValueERKNS_7ArgListE
__ZN3AJL26dateProtoFuncSetUTCMinutesEPNS_9AJExcStateEPNS_8AJObjectENS_7AJValueERKNS_7ArgListE
__ZN3AJL26dateProtoFuncSetUTCSecondsEPNS_9AJExcStateEPNS_8AJObjectENS_7AJValueERKNS_7ArgListE
__ZN3AJL23dateProtoFuncGetUTCDateEPNS_9AJExcStateEPNS_8AJObjectENS_7AJValueERKNS_7ArgListE
__ZN3AJL23dateProtoFuncSetUTCDateEPNS_9AJExcStateEPNS_8AJObjectENS_7AJValueERKNS_7ArgListE
__ZN3AJL24dateProtoFuncGetUTCHoursEPNS_9AJExcStateEPNS_8AJObjectENS_7AJValueERKNS_7ArgListE
__ZN3AJL26dateProtoFuncGetUTCMinutesEPNS_9AJExcStateEPNS_8AJObjectENS_7AJValueERKNS_7ArgListE
__ZN3AJL26dateProtoFuncGetUTCSecondsEPNS_9AJExcStateEPNS_8AJObjectENS_7AJValueERKNS_7ArgListE
__ZN3AJL24dateProtoFuncSetFullYearEPNS_9AJExcStateEPNS_8AJObjectENS_7AJValueERKNS_7ArgListE
__ZN3ATF6VectorIiLm32EE15reserveCapacityEm
__ZN3AJL22regExpProtoFuncCompileEPNS_9AJExcStateEPNS_8AJObjectENS_7AJValueERKNS_7ArgListE
__ZNK3AJ27PropertyNameForFunctionCall5valueEPNS_9AJExcStateE
_cti_op_new_error
__ZN7Aphid6String6numberEj
__ZN3AJL27dateProtoFuncGetUTCFullYearEPNS_9AJExcStateEPNS_8AJObjectENS_7AJValueERKNS_7ArgListE
__ZN3AJL24dateProtoFuncGetUTCMonthEPNS_9AJExcStateEPNS_8AJObjectENS_7AJValueERKNS_7ArgListE
__ZN3AJL31dateProtoFuncToLocaleDateStringEPNS_9AJExcStateEPNS_8AJObjectENS_7AJValueERKNS_7ArgListE
__ZN3AJL16formatLocaleDateEPNS_9AJExcStateEPNS_12DateInstanceEdNS_20LocaleDateTimeFormatERKNS_7ArgListE
__ZN3AJ10throwErrorEPNS_9AJExcStateENS_9ErrorTypeEPKc
__ZN3AJL23throwStackOverflowErrorEPNS_9AJExcStateEPNS_12AJGlobalDataENS_16ReturnAddressPtrERS4_
__ZN3AJ24createStackOverflowErrorEPNS_9AJExcStateE
__ZN3AJ12RegisterFile21releaseExcessCapacityEv
__ZN3AJ12StringObject18getOwnPropertySlotEPNS_9AJExcStateEjRNS_12PropertySlotE
__ZN3AJ19FunctionConstructor11getCallDataERNS_8CallDataE
__ZN7Aphid6String8fromUTF8EPKc
__ZN3AJL27dateProtoFuncToLocaleStringEPNS_9AJExcStateEPNS_8AJObjectENS_7AJValueERKNS_7ArgListE
__ZN3AJ18BooleanConstructor16getConstructDataERNS_13ConstructDataE
__ZN3AJL31constructWithBooleanConstructorEPNS_9AJExcStateEPNS_8AJObjectERKNS_7ArgListE
__ZN3AJ16constructBooleanEPNS_9AJExcStateERKNS_7ArgListE
__ZN3AJ7AJArray11sortNumericEPNS_9AJExcStateENS_7AJValueENS_8CallTypeERKNS_8CallDataE
__ZN3AJL22compareNumbersForQSortEPKvS1_
__ZN3ATF6VectorIjLm16EE15reserveCapacityEm
__ZN3AJ8AJString16getIndexSlowCaseEPNS_9AJExcStateEj
__ZN3AJL25numberConstructorNaNValueEPNS_9AJExcStateENS_7AJValueERKNS_10IdentifierE
__ZN3AJ6AJCell3putEPNS_9AJExcStateERKNS_10IdentifierENS_7AJValueERNS_15PutPropertySlotE
__ZN3AJ4Yarr15nondigitsCreateEv
__ZN3AJL7dateUTCEPNS_9AJExcStateEPNS_8AJObjectENS_7AJValueERKNS_7ArgListE
__ZNK3AJ7ArgList2atEm
__ZN3AJL16mathProtoFuncTanEPNS_9AJExcStateEPNS_8AJObjectENS_7AJValueERKNS_7ArgListE
__ZNK3AJ8AJObject16isVariableObjectEv
__ZN7Aphid6String6insertERKS0_j
__ZN7Aphid6String6insertEPKtjj
__ZN7Aphid10StringImpl37createStrippingNullCharactersSlowCaseEPKtj
__ZN3AJL31dateProtoFuncToLocaleTimeStringEPNS_9AJExcStateEPNS_8AJObjectENS_7AJValueERKNS_7ArgListE
__ZN3ATF7CString11mutableDataEv
__ZN3ATF7CString18copyBufferIfNeededEv
__ZN3AJL18arrayProtoFuncSomeEPNS_9AJExcStateEPNS_8AJObjectENS_7AJValueERKNS_7ArgListE
__ZN3AJ21DebuggerStatementNode12emitBytecodeERNS_17BytecodeGeneratorEPNS_10RegisterIDE
__ZN3AJL31dateProtoFuncGetUTCMillisecondsEPNS_9AJExcStateEPNS_8AJObjectENS_7AJValueERKNS_7ArgListE
__ZN3ATF15ThreadConditionD1Ev
__ZN3AJ18RegExpMatchesArray19getOwnPropertyNamesEPNS_9AJExcStateERNS_17PropertyNameArrayENS_15EnumerationModeE
__ZN3ATF6VectorIPNS0_IN3AJ10IdentifierELm64EEELm32EE14expandCapacityEm
__ZN3AJ15DateConstructor11getCallDataERNS_8CallDataE
__ZN3AJL8callDateEPNS_9AJExcStateEPNS_8AJObjectENS_7AJValueERKNS_7ArgListE
__ZN3AJL22dateProtoFuncGetUTCDayEPNS_9AJExcStateEPNS_8AJObjectENS_7AJValueERKNS_7ArgListE
__ZN3AJL25arrayProtoFuncLastIndexOfEPNS_9AJExcStateEPNS_8AJObjectENS_7AJValueERKNS_7ArgListE
__ZN3AJL19arrayProtoFuncEveryEPNS_9AJExcStateEPNS_8AJObjectENS_7AJValueERKNS_7ArgListE
__ZN3AJL23callFunctionConstructorEPNS_9AJExcStateEPNS_8AJObjectENS_7AJValueERKNS_7ArgListE
__ZN3AJL19stringProtoFuncLinkEPNS_9AJExcStateEPNS_8AJObjectENS_7AJValueERKNS_7ArgListE
__ZN3AJL25dateProtoFuncToDateStringEPNS_9AJExcStateEPNS_8AJObjectENS_7AJValueERKNS_7ArgListE
__ZN3AJ10throwErrorEPNS_9AJExcStateEPNS_8AJObjectE
__ZN3AJL27dateProtoFuncSetUTCFullYearEPNS_9AJExcStateEPNS_8AJObjectENS_7AJValueERKNS_7ArgListE
__ZN3AJL24dateProtoFuncSetUTCMonthEPNS_9AJExcStateEPNS_8AJObjectENS_7AJValueERKNS_7ArgListE
__ZN3AJL31dateProtoFuncSetUTCMillisecondsEPNS_9AJExcStateEPNS_8AJObjectENS_7AJValueERKNS_7ArgListE
__ZN7Aphid6String6numberEx
__ZNK3AJ17NumberConstructor9classInfoEv
__ZNK3AJ17RegExpConstructor9classInfoEv
__ZN3ATF9HashTableINS_6RefPtrIN7Aphid10StringImplEEESt4pairIS4_P19StaticFunctionEntryENS_18PairFirstExtractorIS8_EENS2_10Stri
__ZN3ATF9HashTableINS_6RefPtrIN7Aphid10StringImplEEESt4pairIS4_P16StaticValueEntryENS_18PairFirstExtractorIS8_EENS2_10StringH
__ZN3AJ16AJCallbackObjectINS_8AJObjectEE18getOwnPropertySlotEPNS_9AJExcStateERKNS_10IdentifierERNS_12PropertySlotE
__ZN3AJ16AJCallbackObjectINS_8AJObjectEE20staticFunctionGetterEPNS_9AJExcStateENS_7AJValueERKNS_10IdentifierE
__ZN3AJ18AJCallbackFunctionC1EPNS_9AJExcStateEPFPK13OpaqueAJValuePK15OpaqueAJContextPS3_S9_mPKS5_PS5_ERKNS_10IdentifierE
__ZN3AJ18AJCallbackFunction11getCallDataERNS_8CallDataE
__ZN3AJ18AJCallbackFunction4callEPNS_9AJExcStateEPNS_8AJObjectENS_7AJValueERKNS_7ArgListE
__ZN3AJ6AJLock12DropAllLocksC1EPNS_9AJExcStateE
_AJValueMakeUndefined
__ZN3AJ16AJCallbackObjectINS_8AJObjectEE17staticValueGetterEPNS_9AJExcStateENS_7AJValueERKNS_10IdentifierE
_AJValueMakeString
__ZN3AJ18AJCallbackFunctionD1Ev
_AJValueMakeBoolean
_AJStringCreateWithCharacters
_AJValueMakeNumber
__ZN3AJ4Heap6isBusyEv
__ZN7Aphid10StringImpl7replaceEtPS0_
__ZNK3AJ8AJObject14isGlobalObjectEv
__ZNK7Aphid6String5splitEtbRN3ATF6VectorIS0_Lm0EEE
__ZN7Aphid6String6appendEt
__ZNK3AJ7UString8toUInt32EPb
__ZN3ATF9ByteArray6createEm
__ZN3AJ11AJArrayArrayC1EPNS_9AJExcStateEN3ATF17NonNullPassRefPtrINS_9StructureEEEPNS3_9ByteArrayEPKNS_9ClassInfoE
__ZN3AJ11AJArrayArrayC2EPNS_9AJExcStateEN3ATF17NonNullPassRefPtrINS_9StructureEEEPNS3_9ByteArrayEPKNS_9ClassInfoE
__ZN3AJ11AJArrayArray18getOwnPropertySlotEPNS_9AJExcStateERKNS_10IdentifierERNS_12PropertySlotE
__ZN3AJ11AJArrayArray3putEPNS_9AJExcStateEjNS_7AJValueE
__ZN3AJ11AJArrayArray3putEPNS_9AJExcStateERKNS_10IdentifierENS_7AJValueERNS_15PutPropertySlotE
__ZN3AJ11AJArrayArray18getOwnPropertySlotEPNS_9AJExcStateEjRNS_12PropertySlotE
_cti_op_get_by_val_byte_array
_cti_op_put_by_val_byte_array
_AJStringGetUTF8CString
__ZN3AJ16JSVariableObject19getOwnPropertyNamesEPNS_9AJExcStateERNS_17PropertyNameArrayENS_15EnumerationModeE
__ZNK3AJ22NativeErrorConstructor9classInfoEv
__ZNK3AJ16AJCallbackObjectINS_8AJObjectEE9classNameEv
__ZN3AJ6AJCell16getConstructDataERNS_13ConstructDataE
__ZN3AJ26createNotAConstructorErrorEPNS_9AJExcStateENS_7AJValueEjPNS_9CodeBlockE
__ZNK3AJ4Heap11objectCountEv
__ZN3AJ14AJGlobalObject12defineGetterEPNS_9AJExcStateERKNS_10IdentifierEPNS_8AJObjectEj
__ZN3AJ14AJGlobalObject12defineSetterEPNS_9AJExcStateERKNS_10IdentifierEPNS_8AJObjectEj
__ZN3AJ9Structure22getterSetterTransitionEPS0_
__ZN3AJL28objectProtoFuncIsPrototypeOfEPNS_9AJExcStateEPNS_8AJObjectENS_7AJValueERKNS_7ArgListE
__ZN3AJ16AJCallbackObjectINS_8AJObjectEE11getCallDataERNS_8CallDataE
__ZN3AJL23arrayConstructorIsArrayEPNS_9AJExcStateEPNS_8AJObjectENS_7AJValueERKNS_7ArgListE
__ZN3AJL21objectConstructorKeysEPNS_9AJExcStateEPNS_8AJObjectENS_7AJValueERKNS_7ArgListE
__ZN3AJ12DateInstanceC1EPNS_9AJExcStateEN3ATF17NonNullPassRefPtrINS_9StructureEEEd
__ZN3AJ12DateInstanceC2EPNS_9AJExcStateEN3ATF17NonNullPassRefPtrINS_9StructureEEEd
__ZN3AJL24dateProtoFuncToISOStringEPNS_9AJExcStateEPNS_8AJObjectENS_7AJValueERKNS_7ArgListE
__ZN3AJ15createTypeErrorEPNS_9AJExcStateEPKc
__ZNK3AJ11AJArrayArray9classInfoEv
__ZN3AJ11AJArrayArray19getOwnPropertyNamesEPNS_9AJExcStateERNS_17PropertyNameArrayENS_15EnumerationModeE
__ZN3AJ22NativeErrorConstructor11getCallDataERNS_8CallDataE
__ZN3AJL36objectConstructorGetOwnPropertyNamesEPNS_9AJExcStateEPNS_8AJObjectENS_7AJValueERKNS_7ArgListE
__ZN3AJL41objectConstructorGetOwnPropertyDescriptorEPNS_9AJExcStateEPNS_8AJObjectENS_7AJValueERKNS_7ArgListE
__ZN3AJ16JSVariableObject14symbolTableGetERKNS_10IdentifierERNS_18PropertyDescriptorE
__ZN3AJ8AJObject24getOwnPropertyDescriptorEPNS_9AJExcStateERKNS_10IdentifierERNS_18PropertyDescriptorE
__ZNK3AJ18PropertyDescriptor20isAccessorDescriptorEv
__ZNK3AJ18PropertyDescriptor8writableEv
__ZNK3AJ18PropertyDescriptor12configurableEv
__ZN3AJ12AJGlobalData6createENS_15ThreadStackTypeE
__ZN3AJ12AJGlobalData10ClientDataD2Ev
__ZN3ATF14ThreadSpecificINS_13ATFThreadDataEE7destroyEPv
__ZN3ATF13ATFThreadDataD1Ev
__ZN7Aphid17AtomicStringTable7destroyEPS0_
__ZN3AJ15IdentifierTableD1Ev
__ZN3ATF9dayInYearEdi
__ZN3ATF18monthFromDayInYearEib
__ZN3ATF23dayInMonthFromDayInYearEib
__ZN3AJ6Walker4walkENS_7AJValueE
__ZN3ATF9HashTableIPN7Aphid10StringImplES3_NS_17IdentityExtractorIS3_EENS_7PtrHashIS3_EENS_10HashTraitsIS3_EES9_EC2ERKSA_
__ZN3ATF6VectorIPN3AJ7AJArrayELm16EE14expandCapacityEm
__ZN3ATF6VectorIjLm16EE14expandCapacityEm
__ZN3ATF6VectorIN3AJ11WalkerStateELm16EE14expandCapacityEm
__ZL30makeGetterOrSetterPropertyNodePN3AJ12AJGlobalDataERKNS_10IdentifierES4_PNS_13ParameterNodeEPNS_16FunctionBodyNodeERKNS_1
__ZN3AJ17BytecodeGenerator13emitPutGetterEPNS_10RegisterIDERKNS_10IdentifierES2_
__ZN3AJ3JIT18emit_op_put_getterEPNS_11InstructionE
_cti_op_put_getter
__ZN3AJL23booleanProtoFuncValueOfEPNS_9AJExcStateEPNS_8AJObjectENS_7AJValueERKNS_7ArgListE
__ZN3AJL19dateProtoFuncToJSONEPNS_9AJExcStateEPNS_8AJObjectENS_7AJValueERKNS_7ArgListE
__ZN3AJ9AJExcState9dateTableEPS0_
__ZN3AJ10Identifier4fromEPNS_9AJExcStateEd
__ZN3AJ13StringBuilder6appendEt
__ZN3AJ17BytecodeGenerator13emitPutSetterEPNS_10RegisterIDERKNS_10IdentifierES2_
__ZN3AJ3JIT18emit_op_put_setterEPNS_11InstructionE
_cti_op_put_setter
__ZN3AJL23objectConstructorCreateEPNS_9AJExcStateEPNS_8AJObjectENS_7AJValueERKNS_7ArgListE
__ZN3AJL16definePropertiesEPNS_9AJExcStateEPNS_8AJObjectES3_
__ZN3AJL20toPropertyDescriptorEPNS_9AJExcStateENS_7AJValueERNS_18PropertyDescriptorE
__ZN3AJ18PropertyDescriptor13setEnumerableEb
__ZN3ATF6VectorIN3AJ18PropertyDescriptorELm0EE14expandCapacityEm
__ZNK3AJ18PropertyDescriptor16isDataDescriptorEv
__ZN3AJ8AJObject17defineOwnPropertyEPNS_9AJExcStateERKNS_10IdentifierERNS_18PropertyDescriptorEb
__ZN3AJL13putDescriptorEPNS_9AJExcStateEPNS_8AJObjectERKNS_10IdentifierERNS_18PropertyDescriptorEjNS_7AJValueE
__ZNK3AJ18PropertyDescriptor19isGenericDescriptorEv
__ZN3AJL31objectConstructorGetPrototypeOfEPNS_9AJExcStateEPNS_8AJObjectENS_7AJValueERKNS_7ArgListE
__ZN3AJ18PropertyDescriptor9setGetterENS_7AJValueE
__ZNK3AJ18PropertyDescriptor6getterEv
__ZNK3AJ18PropertyDescriptor6setterEv
__ZN3AJ18PropertyDescriptor15setConfigurableEb
__ZN3AJ18PropertyDescriptor11setWritableEb
__ZN3AJ18PropertyDescriptor9setSetterENS_7AJValueE
__ZN3AJL33objectConstructorDefinePropertiesEPNS_9AJExcStateEPNS_8AJObjectENS_7AJValueERKNS_7ArgListE
__ZNK3AJ18PropertyDescriptor7equalToEPNS_9AJExcStateERKS0_
__ZNK3AJ18PropertyDescriptor15attributesEqualERKS0_
__ZNK3AJ18PropertyDescriptor22attributesWithOverrideERKS0_
__ZN3AJL31objectConstructorDefinePropertyEPNS_9AJExcStateEPNS_8AJObjectENS_7AJValueERKNS_7ArgListE
__ZN3AJ9AJExcState11regExpTableEPS0_
__ZN3AJ9Arguments19getOwnPropertyNamesEPNS_9AJExcStateERNS_17PropertyNameArrayENS_15EnumerationModeE
__ZN3AJ9AJExcState11numberTableEPS0_
__ZN3AJ9AJExcState22regExpConstructorTableEPS0_
__ZNK3AJ15RegExpPrototype9classInfoEv
__ZNK3AJ10MathObject9classInfoEv
__ZN3AJ9AJExcState9mathTableEPS0_
__ZN3AJ9AJExcState9jsonTableEPS0_
__ZN3AJL20arrayProtoFuncReduceEPNS_9AJExcStateEPNS_8AJObjectENS_7AJValueERKNS_7ArgListE
__ZN3AJL25arrayProtoFuncReduceRightEPNS_9AJExcStateEPNS_8AJObjectENS_7AJValueERKNS_7ArgListE
__ZN3AJL28arrayProtoFuncToLocaleStringEPNS_9AJExcStateEPNS_8AJObjectENS_7AJValueERKNS_7ArgListE
__ZN3AJ19AJStaticScopeObject3putEPNS_9AJExcStateERKNS_10IdentifierENS_7AJValueERNS_15PutPropertySlotE
__ZN3AJL25dateProtoFuncToTimeStringEPNS_9AJExcStateEPNS_8AJObjectENS_7AJValueERKNS_7ArgListE
__ZN3AJ7AJValueC1EPNS_9AJExcStateEd
__ZN3AJ15DeleteValueNode12emitBytecodeERNS_17BytecodeGeneratorEPNS_10RegisterIDE
__ZN3AJ16PostfixErrorNode12emitBytecodeERNS_17BytecodeGeneratorEPNS_10RegisterIDE
__ZN3AJ23ThrowableExpressionData14emitThrowErrorERNS_17BytecodeGeneratorENS_9ErrorTypeEPKcRKNS_7UStringE
__ZN3AJ10makeStringINS_7UStringES1_S1_EES1_T_T0_T1_
__ZN3AJ13tryMakeStringINS_7UStringES1_S1_EEN3ATF10PassRefPtrIN7Aphid10StringImplEEET_T0_T1_
__ZN3AJ15PrefixErrorNode12emitBytecodeERNS_17BytecodeGeneratorEPNS_10RegisterIDE
__ZN3AJ23createInvalidParamErrorEPNS_9AJExcStateEPKcNS_7AJValueEjPNS_9CodeBlockE
__ZN3AJ10makeStringIPKcS2_S2_EENS_7UStringET_T0_T1_
__ZN3AJ13tryMakeStringIPKcS2_S2_EEN3ATF10PassRefPtrIN7Aphid10StringImplEEET_T0_T1_
__ZNK3AJ15DotAccessorNode17isDotAccessorNodeEv
__ZNK3AJ14ExpressionNode17isDotAccessorNodeEv
__ZN3AJ13JSNotAnObject3putEPNS_9AJExcStateEjNS_7AJValueE
__ZN3AJ14ArrayPrototype24getOwnPropertyDescriptorEPNS_9AJExcStateERKNS_10IdentifierERNS_18PropertyDescriptorE
__ZN3AJ13DatePrototype24getOwnPropertyDescriptorEPNS_9AJExcStateERKNS_10IdentifierERNS_18PropertyDescriptorE
__ZN3AJ15StringPrototype24getOwnPropertyDescriptorEPNS_9AJExcStateERKNS_10IdentifierERNS_18PropertyDescriptorE
__ZN3AJ12StringObject24getOwnPropertyDescriptorEPNS_9AJExcStateERKNS_10IdentifierERNS_18PropertyDescriptorE
__ZN3AJ8AJString27getStringPropertyDescriptorEPNS_9AJExcStateERKNS_10IdentifierERNS_18PropertyDescriptorE
__ZN3AJ17NumberConstructor24getOwnPropertyDescriptorEPNS_9AJExcStateERKNS_10IdentifierERNS_18PropertyDescriptorE
__ZN3AJ17RegExpConstructor24getOwnPropertyDescriptorEPNS_9AJExcStateERKNS_10IdentifierERNS_18PropertyDescriptorE
__ZN3AJL22regExpConstructorInputEPNS_9AJExcStateENS_7AJValueERKNS_10IdentifierE
__ZN3AJ12RegExpObject24getOwnPropertyDescriptorEPNS_9AJExcStateERKNS_10IdentifierERNS_18PropertyDescriptorE
__ZN3AJ10MathObject24getOwnPropertyDescriptorEPNS_9AJExcStateERKNS_10IdentifierERNS_18PropertyDescriptorE
__ZN3AJ18RegExpMatchesArray24getOwnPropertyDescriptorEPNS_9AJExcStateERKNS_10IdentifierERNS_18PropertyDescriptorE
__ZN3AJ10AJFunction24getOwnPropertyDescriptorEPNS_9AJExcStateERKNS_10IdentifierERNS_18PropertyDescriptorE
__ZN3AJ11AJArrayArray24getOwnPropertyDescriptorEPNS_9AJExcStateERKNS_10IdentifierERNS_18PropertyDescriptorE
__ZNK3AJ16AJCallbackObjectINS_8AJObjectEE8toStringEPNS_9AJExcStateE
__ZN3AJ10throwErrorEPNS_9AJExcStateENS_9ErrorTypeERKNS_7UStringEilS5_
__ZN3AJ17BytecodeGenerator35emitThrowExpressionTooDeepExceptionEv
__ZN3AJL25numberConstructorMinValueEPNS_9AJExcStateENS_7AJValueERKNS_10IdentifierE
__ZN3AJL18mathProtoFuncATan2EPNS_9AJExcStateEPNS_8AJObjectENS_7AJValueERKNS_7ArgListE
__ZN3AJL28numberProtoFuncToExponentialEPNS_9AJExcStateEPNS_8AJObjectENS_7AJValueERKNS_7ArgListE
__ZN3AJ16parseIntOverflowEPKcii
__ZN3AJL29objectProtoFuncToLocaleStringEPNS_9AJExcStateEPNS_8AJObjectENS_7AJValueERKNS_7ArgListE
__ZN3AJL24regExpConstructorDollar5EPNS_9AJExcStateENS_7AJValueERKNS_10IdentifierE
__ZN3AJL24regExpConstructorDollar6EPNS_9AJExcStateENS_7AJValueERKNS_10IdentifierE
__ZN3AJL24regExpConstructorDollar7EPNS_9AJExcStateENS_7AJValueERKNS_10IdentifierE
__ZN3AJL24regExpConstructorDollar8EPNS_9AJExcStateENS_7AJValueERKNS_10IdentifierE
__ZN3AJL24regExpConstructorDollar9EPNS_9AJExcStateENS_7AJValueERKNS_10IdentifierE
__ZN3AJL25setRegExpConstructorInputEPNS_9AJExcStateEPNS_8AJObjectENS_7AJValueE
__ZN3AJL26regExpConstructorLastMatchEPNS_9AJExcStateENS_7AJValueERKNS_10IdentifierE
__ZN3AJL26regExpConstructorLastParenEPNS_9AJExcStateENS_7AJValueERKNS_10IdentifierE
__ZNK3AJ17RegExpConstructor12getLastParenEPNS_9AJExcStateE
__ZN3AJL26regExpConstructorMultilineEPNS_9AJExcStateENS_7AJValueERKNS_10IdentifierE
__ZN3AJL29setRegExpConstructorMultilineEPNS_9AJExcStateEPNS_8AJObjectENS_7AJValueE
__ZNK3AJ17RegExpConstructor5inputEv
__ZN3AJ10makeStringIPKcS2_EENS_7UStringET_T0_
__ZN3AJ13tryMakeStringIPKcS2_EEN3ATF10PassRefPtrIN7Aphid10StringImplEEET_T0_
__ZN3AJ10throwErrorEPNS_9AJExcStateENS_9ErrorTypeERKNS_7UStringE
__ZNK3AJ19AJStaticScopeObject12toThisObjectEPNS_9AJExcStateE
__ZN3AJL23stringProtoFuncTrimLeftEPNS_9AJExcStateEPNS_8AJObjectENS_7AJValueERKNS_7ArgListE
__ZN3AJL24stringProtoFuncTrimRightEPNS_9AJExcStateEPNS_8AJObjectENS_7AJValueERKNS_7ArgListE
__ZN3AJ12JSActivation18getArgumentsGetterEv
__ZN3AJ12JSActivation15argumentsGetterEPNS_9AJExcStateENS_7AJValueERKNS_10IdentifierE
__ZN3AJL28stringProtoFuncLocaleCompareEPNS_9AJExcStateEPNS_8AJObjectENS_7AJValueERKNS_7ArgListE
__ZN3ATF8Collator11userDefaultEv
__ZNK3ATF8Collator7collateEPKtmS2_m
__ZNK3ATF8Collator14createCollatorEv
__ZN3ATF8CollatorD1Ev
__ZN3ATF8Collator15releaseCollatorEv
__ZN3AJ9Arguments14deletePropertyEPNS_9AJExcStateERKNS_10IdentifierE
__ZN3AJL26callNativeErrorConstructorEPNS_9AJExcStateEPNS_8AJObjectENS_7AJValueERKNS_7ArgListE
__ZN3AJL21callFunctionPrototypeEPNS_9AJExcStateEPNS_8AJObjectENS_7AJValueERKNS_7ArgListE
__ZN3AJ6AJCell11getJSNumberEv
__ZN3AJL16callRegExpObjectEPNS_9AJExcStateEPNS_8AJObjectENS_7AJValueERKNS_7ArgListE
__ZN3ATF6VectorIN3AJ20FunctionRegisterInfoELm0EE14expandCapacityEm
__ZN3AJ3JIT25emit_op_profile_will_callEPNS_11InstructionE
__ZN3AJ3JIT24emit_op_profile_did_callEPNS_11InstructionE
__ZN3AJ8Profiler8profilerEv
__ZN3AJ8Profiler14startProfilingEPNS_9AJExcStateERKNS_7UStringE
__ZN3AJ16ProfileGenerator6createERKNS_7UStringEPNS_9AJExcStateEj
__ZN3AJ16ProfileGeneratorC2ERKNS_7UStringEPNS_9AJExcStateEj
__ZN3AJ7Profile6createERKNS_7UStringEj
__ZN3AJ7ProfileC2ERKNS_7UStringEj
__ZN3AJ11ProfileNodeC1ERKNS_14CallIdentifierEPS0_S4_
__ZN3AJ16ProfileGenerator24addParentForConsoleStartEPNS_9AJExcStateE
__ZN3AJ8Profiler20createCallIdentifierEPNS_9AJExcStateENS_7AJValueERKNS_7UStringEi
__ZN3AJ16InternalFunction21calculatedDisplayNameEPNS_9AJExcStateE
__ZN3AJ16InternalFunction11displayNameEPNS_9AJExcStateE
__ZN3AJ11ProfileNode10insertNodeEN3ATF10PassRefPtrIS0_EE
__ZN3ATF6VectorINS_6RefPtrIN3AJ11ProfileNodeEEELm0EE14expandCapacityEm
__ZN3ATF6VectorINS_6RefPtrIN3AJ16ProfileGeneratorEEELm0EE15reserveCapacityEm
_cti_op_profile_did_call
__ZN3AJ8Profiler10didExecuteEPNS_9AJExcStateENS_7AJValueE
__ZN3AJ16ProfileGenerator10didExecuteERKNS_14CallIdentifierE
__ZN3AJ11ProfileNode10didExecuteEv
_cti_op_profile_will_call
__ZN3AJ8Profiler11willExecuteEPNS_9AJExcStateENS_7AJValueE
__ZN3AJ16ProfileGenerator11willExecuteERKNS_14CallIdentifierE
__ZN3AJ11ProfileNode11willExecuteERKNS_14CallIdentifierE
__ZN3AJ8Profiler13stopProfilingEPNS_9AJExcStateERKNS_7UStringE
__ZN3AJ16ProfileGenerator13stopProfilingEv
__ZN3AJ7Profile7forEachEMNS_11ProfileNodeEFvvE
__ZNK3AJ11ProfileNode25traverseNextNodePostOrderEv
__ZN3AJ11ProfileNode13stopProfilingEv
__ZN3AJ11ProfileNode11removeChildEPS0_
__ZN3AJ11ProfileNode8addChildEN3ATF10PassRefPtrIS0_EE
__ZN3AJ8Debugger23recompileAllAJFunctionsEPNS_12AJGlobalDataE
__ZN3AJ4Heap16primaryHeapBeginEv
__ZN3AJ4Heap14primaryHeapEndEv
__ZNK3AJ18AJCallbackFunction9classInfoEv
__ZN3ATF7HashSetIPN3AJ18FunctionExecutableENS_7PtrHashIS3_EENS_10HashTraitsIS3_EEE3addERKS3_
__ZN3ATF9HashTableIPN3AJ18FunctionExecutableES3_NS_17IdentityExtractorIS3_EENS_7PtrHashIS3_EENS_10HashTraitsIS3_EES9_E6expandE
__ZN3AJ18FunctionExecutable9recompileEPNS_9AJExcStateE
__ZN3AJ8Profiler11willExecuteEPNS_9AJExcStateERKNS_7UStringEi
__ZN3AJ8Profiler10didExecuteEPNS_9AJExcStateERKNS_7UStringEi
__ZNK3AJ16ProfileGenerator5titleEv
__ZN3AJ9CodeBlock33functionRegisterForBytecodeOffsetEjRi
__ZN3AJ7ProfileD0Ev
__ZN3ATF10RefCountedIN3AJ11ProfileNodeEE5derefEv
__ZN3AJ34createTerminatedExecutionExceptionEPNS_12AJGlobalDataE
__ZNK3AJ24TerminatedExecutionError13exceptionTypeEv
__ZN3AJ24TerminatedExecutionErrorD1Ev
__ZN3ATF8CollatorC1EPKc
__ZN3ATF8Collator18setOrderLowerFirstEb
_AJValueIsEqual
__ZN3AJ7AJValue13equalSlowCaseEPNS_9AJExcStateES0_S0_
__ZNK3AJ14AJGlobalObject17supportsProfilingEv
__ZNK7Aphid6String12toUIntStrictEPbi
__ZN7Aphid10StringImpl12toUIntStrictEPbi
__ZN3ATF12randomNumberEv
__ZNK7Aphid6String8toUInt64EPb
__ZN7Aphid10StringImpl8toUInt64EPb
__ZN7Aphid18charactersToUInt64EPKtmPb
_AJStringGetMaximumUTF8CStringSize
__ZN3AJ16AJCallbackObjectINS_8AJObjectEE3putEPNS_9AJExcStateERKNS_10IdentifierENS_7AJValueERNS_15PutPropertySlotE
__ZN7Aphid6String6numberEm
__ZN3AJ4Heap17globalObjectCountEv
__ZN3AJ4Heap20protectedObjectCountEv
__ZN3AJ4Heap25protectedObjectTypeCountsEv
__ZN3ATF9HashTableIPKcSt4pairIS2_jENS_18PairFirstExtractorIS4_EENS_7PtrHashIS2_EENS_14PairHashTraitsINS_10HashTraitsIS2_EENSA_I
__ZNK3AJ6AJCell17isAPIValueWrapperEv
__ZNK3AJ6AJCell22isPropertyNameIteratorEv
__ZN3AJ4Heap16objectTypeCountsEv
__ZNK3AJ22AJPropertyNameIterator22isPropertyNameIteratorEv
__ZN3ATF20fastMallocStatisticsEv
__ZNK3AJ4Heap10statisticsEv
__ZN3ATF27releaseFastMallocFreeMemoryEv
_AJStringIsEqualToUTF8CString
__ZN3AJ16AJCallbackObjectINS_8AJObjectEE14callbackGetterEPNS_9AJExcStateENS_7AJValueERKNS_10IdentifierE
_AJObjectSetPrivate
__ZN3AJ8Debugger6attachEPNS_14AJGlobalObjectE
__ZN3ATF9HashTableIPN3AJ14AJGlobalObjectES3_NS_17IdentityExtractorIS3_EENS_7PtrHashIS3_EENS_10HashTraitsIS3_EES9_E6rehashEi
__ZN3ATF9HashTableIPN3AJ14SourceProviderESt4pairIS3_PNS1_9AJExcStateEENS_18PairFirstExtractorIS7_EENS_7PtrHashIS3_EENS_14PairHa
__ZN3AJ7UString4fromEl
__ZN3AJ3JIT13emit_op_debugEPNS_11InstructionE
_cti_op_debug
__ZN3AJ11Interpreter5debugEPNS_9AJExcStateENS_11DebugHookIDEii
__ZNK3AJ17DebuggerCallFrame4typeEv
__ZNK3AJ17DebuggerCallFrame22calculatedFunctionNameEv
__ZNK3AJ12JSActivation18isActivationObjectEv
__ZNK3AJ17DebuggerCallFrame10thisObjectEv
__ZN3ATF28setMainThreadCallbacksPausedEb
__ZNK3AJ17DebuggerCallFrame8evaluateERKNS_7UStringERNS_7AJValueE
__ZN3AJ8Debugger6detachEPNS_14AJGlobalObjectE
_AJValueIsObjectOfClass
